ARM GAS  C:\Temp\ccmjQbyl.s 			page 1


   1              		.syntax unified
   2              		.cpu cortex-m0
   3              		.fpu softvfp
   4              		.eabi_attribute 20, 1
   5              		.eabi_attribute 21, 1
   6              		.eabi_attribute 23, 3
   7              		.eabi_attribute 24, 1
   8              		.eabi_attribute 25, 1
   9              		.eabi_attribute 26, 1
  10              		.eabi_attribute 30, 1
  11              		.eabi_attribute 34, 0
  12              		.eabi_attribute 18, 4
  13              		.thumb
  14              		.syntax unified
  15              		.file	"cyfitter_cfg.c"
  16              		.text
  17              	.Ltext0:
  18              		.cfi_sections	.debug_frame
  19              		.section	.text.cfg_write_bytes32,"ax",%progbits
  20              		.align	2
  21              		.code	16
  22              		.thumb_func
  23              		.type	cfg_write_bytes32, %function
  24              	cfg_write_bytes32:
  25              	.LFB3:
  26              		.file 1 "Generated_Source\\PSoC4\\cyfitter_cfg.c"
   1:Generated_Source\PSoC4/cyfitter_cfg.c **** 
   2:Generated_Source\PSoC4/cyfitter_cfg.c **** /*******************************************************************************
   3:Generated_Source\PSoC4/cyfitter_cfg.c **** * File Name: cyfitter_cfg.c
   4:Generated_Source\PSoC4/cyfitter_cfg.c **** * 
   5:Generated_Source\PSoC4/cyfitter_cfg.c **** * PSoC Creator  4.2
   6:Generated_Source\PSoC4/cyfitter_cfg.c **** *
   7:Generated_Source\PSoC4/cyfitter_cfg.c **** * Description:
   8:Generated_Source\PSoC4/cyfitter_cfg.c **** * This file contains device initialization code.
   9:Generated_Source\PSoC4/cyfitter_cfg.c **** * Except for the user defined sections in CyClockStartupError(), this file should not be modified.
  10:Generated_Source\PSoC4/cyfitter_cfg.c **** * This file is automatically generated by PSoC Creator.
  11:Generated_Source\PSoC4/cyfitter_cfg.c **** *
  12:Generated_Source\PSoC4/cyfitter_cfg.c **** ********************************************************************************
  13:Generated_Source\PSoC4/cyfitter_cfg.c **** * Copyright (c) 2007-2018 Cypress Semiconductor.  All rights reserved.
  14:Generated_Source\PSoC4/cyfitter_cfg.c **** * You may use this file only in accordance with the license, terms, conditions, 
  15:Generated_Source\PSoC4/cyfitter_cfg.c **** * disclaimers, and limitations in the end user license agreement accompanying 
  16:Generated_Source\PSoC4/cyfitter_cfg.c **** * the software package with which this file was provided.
  17:Generated_Source\PSoC4/cyfitter_cfg.c **** ********************************************************************************/
  18:Generated_Source\PSoC4/cyfitter_cfg.c **** 
  19:Generated_Source\PSoC4/cyfitter_cfg.c **** #include <string.h>
  20:Generated_Source\PSoC4/cyfitter_cfg.c **** #include "cytypes.h"
  21:Generated_Source\PSoC4/cyfitter_cfg.c **** #include "cydevice_trm.h"
  22:Generated_Source\PSoC4/cyfitter_cfg.c **** #include "cyfitter.h"
  23:Generated_Source\PSoC4/cyfitter_cfg.c **** #include "CyLib.h"
  24:Generated_Source\PSoC4/cyfitter_cfg.c **** #include "cyfitter_cfg.h"
  25:Generated_Source\PSoC4/cyfitter_cfg.c **** #include "cyapicallbacks.h"
  26:Generated_Source\PSoC4/cyfitter_cfg.c **** 
  27:Generated_Source\PSoC4/cyfitter_cfg.c **** 
  28:Generated_Source\PSoC4/cyfitter_cfg.c **** #if defined(__GNUC__) || defined(__ARMCC_VERSION)
  29:Generated_Source\PSoC4/cyfitter_cfg.c ****     #define CYPACKED 
  30:Generated_Source\PSoC4/cyfitter_cfg.c ****     #define CYPACKED_ATTR __attribute__ ((packed))
  31:Generated_Source\PSoC4/cyfitter_cfg.c ****     #define CYALIGNED __attribute__ ((aligned))
ARM GAS  C:\Temp\ccmjQbyl.s 			page 2


  32:Generated_Source\PSoC4/cyfitter_cfg.c ****     #define CY_CFG_UNUSED __attribute__ ((unused))
  33:Generated_Source\PSoC4/cyfitter_cfg.c ****     #ifndef CY_CFG_SECTION
  34:Generated_Source\PSoC4/cyfitter_cfg.c ****         #define CY_CFG_SECTION __attribute__ ((section(".psocinit")))
  35:Generated_Source\PSoC4/cyfitter_cfg.c ****     #endif
  36:Generated_Source\PSoC4/cyfitter_cfg.c ****     
  37:Generated_Source\PSoC4/cyfitter_cfg.c ****     #if defined(__ARMCC_VERSION)
  38:Generated_Source\PSoC4/cyfitter_cfg.c ****         #define CY_CFG_MEMORY_BARRIER() __memory_changed()
  39:Generated_Source\PSoC4/cyfitter_cfg.c ****     #else
  40:Generated_Source\PSoC4/cyfitter_cfg.c ****         #define CY_CFG_MEMORY_BARRIER() __sync_synchronize()
  41:Generated_Source\PSoC4/cyfitter_cfg.c ****     #endif
  42:Generated_Source\PSoC4/cyfitter_cfg.c ****     
  43:Generated_Source\PSoC4/cyfitter_cfg.c **** #elif defined(__ICCARM__)
  44:Generated_Source\PSoC4/cyfitter_cfg.c ****     #include <intrinsics.h>
  45:Generated_Source\PSoC4/cyfitter_cfg.c **** 
  46:Generated_Source\PSoC4/cyfitter_cfg.c ****     #define CYPACKED __packed
  47:Generated_Source\PSoC4/cyfitter_cfg.c ****     #define CYPACKED_ATTR 
  48:Generated_Source\PSoC4/cyfitter_cfg.c ****     #define CYALIGNED _Pragma("data_alignment=4")
  49:Generated_Source\PSoC4/cyfitter_cfg.c ****     #define CY_CFG_UNUSED _Pragma("diag_suppress=Pe177")
  50:Generated_Source\PSoC4/cyfitter_cfg.c ****     #define CY_CFG_SECTION _Pragma("location=\".psocinit\"")
  51:Generated_Source\PSoC4/cyfitter_cfg.c ****     
  52:Generated_Source\PSoC4/cyfitter_cfg.c ****     #define CY_CFG_MEMORY_BARRIER() __DMB()
  53:Generated_Source\PSoC4/cyfitter_cfg.c ****     
  54:Generated_Source\PSoC4/cyfitter_cfg.c **** #else
  55:Generated_Source\PSoC4/cyfitter_cfg.c ****     #error Unsupported toolchain
  56:Generated_Source\PSoC4/cyfitter_cfg.c **** #endif
  57:Generated_Source\PSoC4/cyfitter_cfg.c **** 
  58:Generated_Source\PSoC4/cyfitter_cfg.c **** #ifndef CYCODE
  59:Generated_Source\PSoC4/cyfitter_cfg.c ****     #define CYCODE
  60:Generated_Source\PSoC4/cyfitter_cfg.c **** #endif
  61:Generated_Source\PSoC4/cyfitter_cfg.c **** #ifndef CYDATA
  62:Generated_Source\PSoC4/cyfitter_cfg.c ****     #define CYDATA
  63:Generated_Source\PSoC4/cyfitter_cfg.c **** #endif
  64:Generated_Source\PSoC4/cyfitter_cfg.c **** #ifndef CYFAR
  65:Generated_Source\PSoC4/cyfitter_cfg.c ****     #define CYFAR
  66:Generated_Source\PSoC4/cyfitter_cfg.c **** #endif
  67:Generated_Source\PSoC4/cyfitter_cfg.c **** #ifndef CYXDATA
  68:Generated_Source\PSoC4/cyfitter_cfg.c ****     #define CYXDATA
  69:Generated_Source\PSoC4/cyfitter_cfg.c **** #endif
  70:Generated_Source\PSoC4/cyfitter_cfg.c **** 
  71:Generated_Source\PSoC4/cyfitter_cfg.c **** 
  72:Generated_Source\PSoC4/cyfitter_cfg.c **** CY_CFG_UNUSED
  73:Generated_Source\PSoC4/cyfitter_cfg.c **** static void CYMEMZERO(void *s, size_t n);
  74:Generated_Source\PSoC4/cyfitter_cfg.c **** CY_CFG_UNUSED
  75:Generated_Source\PSoC4/cyfitter_cfg.c **** static void CYMEMZERO(void *s, size_t n)
  76:Generated_Source\PSoC4/cyfitter_cfg.c **** {
  77:Generated_Source\PSoC4/cyfitter_cfg.c **** 	(void)memset(s, 0, n);
  78:Generated_Source\PSoC4/cyfitter_cfg.c **** }
  79:Generated_Source\PSoC4/cyfitter_cfg.c **** CY_CFG_UNUSED
  80:Generated_Source\PSoC4/cyfitter_cfg.c **** static void CYCONFIGCPY(void *dest, const void *src, size_t n);
  81:Generated_Source\PSoC4/cyfitter_cfg.c **** CY_CFG_UNUSED
  82:Generated_Source\PSoC4/cyfitter_cfg.c **** static void CYCONFIGCPY(void *dest, const void *src, size_t n)
  83:Generated_Source\PSoC4/cyfitter_cfg.c **** {
  84:Generated_Source\PSoC4/cyfitter_cfg.c **** 	(void)memcpy(dest, src, n);
  85:Generated_Source\PSoC4/cyfitter_cfg.c **** }
  86:Generated_Source\PSoC4/cyfitter_cfg.c **** CY_CFG_UNUSED
  87:Generated_Source\PSoC4/cyfitter_cfg.c **** static void CYCONFIGCPYCODE(void *dest, const void *src, size_t n);
  88:Generated_Source\PSoC4/cyfitter_cfg.c **** CY_CFG_UNUSED
ARM GAS  C:\Temp\ccmjQbyl.s 			page 3


  89:Generated_Source\PSoC4/cyfitter_cfg.c **** static void CYCONFIGCPYCODE(void *dest, const void *src, size_t n)
  90:Generated_Source\PSoC4/cyfitter_cfg.c **** {
  91:Generated_Source\PSoC4/cyfitter_cfg.c **** 	(void)memcpy(dest, src, n);
  92:Generated_Source\PSoC4/cyfitter_cfg.c **** }
  93:Generated_Source\PSoC4/cyfitter_cfg.c **** 
  94:Generated_Source\PSoC4/cyfitter_cfg.c **** 
  95:Generated_Source\PSoC4/cyfitter_cfg.c **** 
  96:Generated_Source\PSoC4/cyfitter_cfg.c **** 
  97:Generated_Source\PSoC4/cyfitter_cfg.c **** /* Clock startup error codes                                                   */
  98:Generated_Source\PSoC4/cyfitter_cfg.c **** #define CYCLOCKSTART_NO_ERROR    0u
  99:Generated_Source\PSoC4/cyfitter_cfg.c **** #define CYCLOCKSTART_XTAL_ERROR  1u
 100:Generated_Source\PSoC4/cyfitter_cfg.c **** #define CYCLOCKSTART_32KHZ_ERROR 2u
 101:Generated_Source\PSoC4/cyfitter_cfg.c **** #define CYCLOCKSTART_PLL_ERROR   3u
 102:Generated_Source\PSoC4/cyfitter_cfg.c **** #define CYCLOCKSTART_FLL_ERROR   4u
 103:Generated_Source\PSoC4/cyfitter_cfg.c **** #define CYCLOCKSTART_WCO_ERROR   5u
 104:Generated_Source\PSoC4/cyfitter_cfg.c **** 
 105:Generated_Source\PSoC4/cyfitter_cfg.c **** 
 106:Generated_Source\PSoC4/cyfitter_cfg.c **** #ifdef CY_NEED_CYCLOCKSTARTUPERROR
 107:Generated_Source\PSoC4/cyfitter_cfg.c **** /*******************************************************************************
 108:Generated_Source\PSoC4/cyfitter_cfg.c **** * Function Name: CyClockStartupError
 109:Generated_Source\PSoC4/cyfitter_cfg.c **** ********************************************************************************
 110:Generated_Source\PSoC4/cyfitter_cfg.c **** * Summary:
 111:Generated_Source\PSoC4/cyfitter_cfg.c **** *  If an error is encountered during clock configuration (crystal startup error,
 112:Generated_Source\PSoC4/cyfitter_cfg.c **** *  PLL lock error, etc.), the system will end up here.  Unless reimplemented by
 113:Generated_Source\PSoC4/cyfitter_cfg.c **** *  the customer, this function will stop in an infinite loop.
 114:Generated_Source\PSoC4/cyfitter_cfg.c **** *
 115:Generated_Source\PSoC4/cyfitter_cfg.c **** * Parameters:
 116:Generated_Source\PSoC4/cyfitter_cfg.c **** *   void
 117:Generated_Source\PSoC4/cyfitter_cfg.c **** *
 118:Generated_Source\PSoC4/cyfitter_cfg.c **** * Return:
 119:Generated_Source\PSoC4/cyfitter_cfg.c **** *   void
 120:Generated_Source\PSoC4/cyfitter_cfg.c **** *
 121:Generated_Source\PSoC4/cyfitter_cfg.c **** *******************************************************************************/
 122:Generated_Source\PSoC4/cyfitter_cfg.c **** CY_CFG_UNUSED
 123:Generated_Source\PSoC4/cyfitter_cfg.c **** static void CyClockStartupError(uint8 errorCode);
 124:Generated_Source\PSoC4/cyfitter_cfg.c **** CY_CFG_UNUSED
 125:Generated_Source\PSoC4/cyfitter_cfg.c **** static void CyClockStartupError(uint8 errorCode)
 126:Generated_Source\PSoC4/cyfitter_cfg.c **** {
 127:Generated_Source\PSoC4/cyfitter_cfg.c ****     /* To remove the compiler warning if errorCode not used.                */
 128:Generated_Source\PSoC4/cyfitter_cfg.c ****     errorCode = errorCode;
 129:Generated_Source\PSoC4/cyfitter_cfg.c **** 
 130:Generated_Source\PSoC4/cyfitter_cfg.c ****     /* If we have a clock startup error (bad MHz crystal, PLL lock, etc.),  */
 131:Generated_Source\PSoC4/cyfitter_cfg.c ****     /* we will end up here to allow the customer to implement something to  */
 132:Generated_Source\PSoC4/cyfitter_cfg.c ****     /* deal with the clock condition.                                       */
 133:Generated_Source\PSoC4/cyfitter_cfg.c **** 
 134:Generated_Source\PSoC4/cyfitter_cfg.c **** #ifdef CY_CFG_CLOCK_STARTUP_ERROR_CALLBACK
 135:Generated_Source\PSoC4/cyfitter_cfg.c ****     CY_CFG_Clock_Startup_ErrorCallback();
 136:Generated_Source\PSoC4/cyfitter_cfg.c **** #else
 137:Generated_Source\PSoC4/cyfitter_cfg.c ****     /*  If not using CY_CFG_CLOCK_STARTUP_ERROR_CALLBACK, place your clock startup code here. */
 138:Generated_Source\PSoC4/cyfitter_cfg.c ****     /* `#START CyClockStartupError` */
 139:Generated_Source\PSoC4/cyfitter_cfg.c **** 
 140:Generated_Source\PSoC4/cyfitter_cfg.c **** 
 141:Generated_Source\PSoC4/cyfitter_cfg.c **** 
 142:Generated_Source\PSoC4/cyfitter_cfg.c ****     /* `#END` */
 143:Generated_Source\PSoC4/cyfitter_cfg.c **** 
 144:Generated_Source\PSoC4/cyfitter_cfg.c ****     while(1) {}
 145:Generated_Source\PSoC4/cyfitter_cfg.c **** #endif /* CY_CFG_CLOCK_STARTUP_ERROR_CALLBACK */
ARM GAS  C:\Temp\ccmjQbyl.s 			page 4


 146:Generated_Source\PSoC4/cyfitter_cfg.c **** }
 147:Generated_Source\PSoC4/cyfitter_cfg.c **** #endif
 148:Generated_Source\PSoC4/cyfitter_cfg.c **** 
 149:Generated_Source\PSoC4/cyfitter_cfg.c **** #define CY_CFG_BASE_ADDR_COUNT 7u
 150:Generated_Source\PSoC4/cyfitter_cfg.c **** CYPACKED typedef struct
 151:Generated_Source\PSoC4/cyfitter_cfg.c **** {
 152:Generated_Source\PSoC4/cyfitter_cfg.c **** 	uint8 offset;
 153:Generated_Source\PSoC4/cyfitter_cfg.c **** 	uint8 value;
 154:Generated_Source\PSoC4/cyfitter_cfg.c **** } CYPACKED_ATTR cy_cfg_addrvalue_t;
 155:Generated_Source\PSoC4/cyfitter_cfg.c **** 
 156:Generated_Source\PSoC4/cyfitter_cfg.c **** 
 157:Generated_Source\PSoC4/cyfitter_cfg.c **** 
 158:Generated_Source\PSoC4/cyfitter_cfg.c **** /*******************************************************************************
 159:Generated_Source\PSoC4/cyfitter_cfg.c **** * Function Name: cfg_write_bytes32
 160:Generated_Source\PSoC4/cyfitter_cfg.c **** ********************************************************************************
 161:Generated_Source\PSoC4/cyfitter_cfg.c **** * Summary:
 162:Generated_Source\PSoC4/cyfitter_cfg.c **** *  This function is used for setting up the chip configuration areas that
 163:Generated_Source\PSoC4/cyfitter_cfg.c **** *  contain relatively sparse data.
 164:Generated_Source\PSoC4/cyfitter_cfg.c **** *
 165:Generated_Source\PSoC4/cyfitter_cfg.c **** * Parameters:
 166:Generated_Source\PSoC4/cyfitter_cfg.c **** *   void
 167:Generated_Source\PSoC4/cyfitter_cfg.c **** *
 168:Generated_Source\PSoC4/cyfitter_cfg.c **** * Return:
 169:Generated_Source\PSoC4/cyfitter_cfg.c **** *   void
 170:Generated_Source\PSoC4/cyfitter_cfg.c **** *
 171:Generated_Source\PSoC4/cyfitter_cfg.c **** *******************************************************************************/
 172:Generated_Source\PSoC4/cyfitter_cfg.c **** static void cfg_write_bytes32(const uint32 addr_table[], const cy_cfg_addrvalue_t data_table[]);
 173:Generated_Source\PSoC4/cyfitter_cfg.c **** static void cfg_write_bytes32(const uint32 addr_table[], const cy_cfg_addrvalue_t data_table[])
 174:Generated_Source\PSoC4/cyfitter_cfg.c **** {
  27              		.loc 1 174 0
  28              		.cfi_startproc
  29              		@ args = 0, pretend = 0, frame = 0
  30              		@ frame_needed = 0, uses_anonymous_args = 0
  31              	.LVL0:
  32 0000 F0B5     		push	{r4, r5, r6, r7, lr}
  33              		.cfi_def_cfa_offset 20
  34              		.cfi_offset 4, -20
  35              		.cfi_offset 5, -16
  36              		.cfi_offset 6, -12
  37              		.cfi_offset 7, -8
  38              		.cfi_offset 14, -4
  39              	.LVL1:
 175:Generated_Source\PSoC4/cyfitter_cfg.c **** 	/* For 32-bit little-endian architectures */
 176:Generated_Source\PSoC4/cyfitter_cfg.c **** 	uint32 i, j = 0u;
  40              		.loc 1 176 0
  41 0002 0025     		movs	r5, #0
 177:Generated_Source\PSoC4/cyfitter_cfg.c **** 	for (i = 0u; i < CY_CFG_BASE_ADDR_COUNT; i++)
  42              		.loc 1 177 0
  43 0004 0027     		movs	r7, #0
  44 0006 11E0     		b	.L2
  45              	.LVL2:
  46              	.L5:
  47              	.LBB2:
 178:Generated_Source\PSoC4/cyfitter_cfg.c **** 	{
 179:Generated_Source\PSoC4/cyfitter_cfg.c **** 		uint32 baseAddr = addr_table[i];
  48              		.loc 1 179 0
  49 0008 BB00     		lsls	r3, r7, #2
ARM GAS  C:\Temp\ccmjQbyl.s 			page 5


  50 000a C658     		ldr	r6, [r0, r3]
  51              	.LVL3:
 180:Generated_Source\PSoC4/cyfitter_cfg.c **** 		uint8 count = (uint8)baseAddr;
  52              		.loc 1 180 0
  53 000c F3B2     		uxtb	r3, r6
  54              	.LVL4:
 181:Generated_Source\PSoC4/cyfitter_cfg.c **** 		baseAddr &= 0xFFFFFF00u;
  55              		.loc 1 181 0
  56 000e FF22     		movs	r2, #255
  57 0010 9643     		bics	r6, r2
  58              	.LVL5:
 182:Generated_Source\PSoC4/cyfitter_cfg.c **** 		while (count != 0u)
  59              		.loc 1 182 0
  60 0012 08E0     		b	.L3
  61              	.L4:
 183:Generated_Source\PSoC4/cyfitter_cfg.c **** 		{
 184:Generated_Source\PSoC4/cyfitter_cfg.c **** 			CY_SET_REG8((void *)(baseAddr + data_table[j].offset), data_table[j].value);
  62              		.loc 1 184 0
  63 0014 6A00     		lsls	r2, r5, #1
  64 0016 8A18     		adds	r2, r1, r2
  65 0018 1478     		ldrb	r4, [r2]
  66 001a A419     		adds	r4, r4, r6
  67 001c 5278     		ldrb	r2, [r2, #1]
  68 001e 2270     		strb	r2, [r4]
 185:Generated_Source\PSoC4/cyfitter_cfg.c **** 			j++;
  69              		.loc 1 185 0
  70 0020 0135     		adds	r5, r5, #1
  71              	.LVL6:
 186:Generated_Source\PSoC4/cyfitter_cfg.c **** 			count--;
  72              		.loc 1 186 0
  73 0022 013B     		subs	r3, r3, #1
  74              	.LVL7:
  75 0024 DBB2     		uxtb	r3, r3
  76              	.LVL8:
  77              	.L3:
 182:Generated_Source\PSoC4/cyfitter_cfg.c **** 		{
  78              		.loc 1 182 0
  79 0026 002B     		cmp	r3, #0
  80 0028 F4D1     		bne	.L4
  81              	.LBE2:
 177:Generated_Source\PSoC4/cyfitter_cfg.c **** 	{
  82              		.loc 1 177 0 discriminator 2
  83 002a 0137     		adds	r7, r7, #1
  84              	.LVL9:
  85              	.L2:
 177:Generated_Source\PSoC4/cyfitter_cfg.c **** 	{
  86              		.loc 1 177 0 is_stmt 0 discriminator 1
  87 002c 062F     		cmp	r7, #6
  88 002e EBD9     		bls	.L5
 187:Generated_Source\PSoC4/cyfitter_cfg.c **** 		}
 188:Generated_Source\PSoC4/cyfitter_cfg.c **** 	}
 189:Generated_Source\PSoC4/cyfitter_cfg.c **** }
  89              		.loc 1 189 0 is_stmt 1
  90              		@ sp needed
  91              	.LVL10:
  92              	.LVL11:
  93 0030 F0BD     		pop	{r4, r5, r6, r7, pc}
ARM GAS  C:\Temp\ccmjQbyl.s 			page 6


  94              		.cfi_endproc
  95              	.LFE3:
  96              		.size	cfg_write_bytes32, .-cfg_write_bytes32
  97 0032 C046     		.section	.text.CYMEMZERO,"ax",%progbits
  98              		.align	2
  99              		.code	16
 100              		.thumb_func
 101              		.type	CYMEMZERO, %function
 102              	CYMEMZERO:
 103              	.LFB0:
  76:Generated_Source\PSoC4/cyfitter_cfg.c **** 	(void)memset(s, 0, n);
 104              		.loc 1 76 0
 105              		.cfi_startproc
 106              		@ args = 0, pretend = 0, frame = 0
 107              		@ frame_needed = 0, uses_anonymous_args = 0
 108              	.LVL12:
 109 0000 10B5     		push	{r4, lr}
 110              		.cfi_def_cfa_offset 8
 111              		.cfi_offset 4, -8
 112              		.cfi_offset 14, -4
 113 0002 0A00     		movs	r2, r1
  77:Generated_Source\PSoC4/cyfitter_cfg.c **** }
 114              		.loc 1 77 0
 115 0004 0021     		movs	r1, #0
 116              	.LVL13:
 117 0006 FFF7FEFF 		bl	memset
 118              	.LVL14:
  78:Generated_Source\PSoC4/cyfitter_cfg.c **** CY_CFG_UNUSED
 119              		.loc 1 78 0
 120              		@ sp needed
 121 000a 10BD     		pop	{r4, pc}
 122              		.cfi_endproc
 123              	.LFE0:
 124              		.size	CYMEMZERO, .-CYMEMZERO
 125              		.section	.psocinit,"ax",%progbits
 126              		.align	2
 127              		.code	16
 128              		.thumb_func
 129              		.type	ClockSetup, %function
 130              	ClockSetup:
 131              	.LFB4:
 190:Generated_Source\PSoC4/cyfitter_cfg.c **** 
 191:Generated_Source\PSoC4/cyfitter_cfg.c **** 
 192:Generated_Source\PSoC4/cyfitter_cfg.c **** /*******************************************************************************
 193:Generated_Source\PSoC4/cyfitter_cfg.c **** * Function Name: ClockSetup
 194:Generated_Source\PSoC4/cyfitter_cfg.c **** ********************************************************************************
 195:Generated_Source\PSoC4/cyfitter_cfg.c **** *
 196:Generated_Source\PSoC4/cyfitter_cfg.c **** * Summary:
 197:Generated_Source\PSoC4/cyfitter_cfg.c **** *   Performs the initialization of all of the clocks in the device based on the
 198:Generated_Source\PSoC4/cyfitter_cfg.c **** *   settings in the Clock tab of the DWR.  This includes enabling the requested
 199:Generated_Source\PSoC4/cyfitter_cfg.c **** *   clocks and setting the necessary dividers to produce the desired frequency. 
 200:Generated_Source\PSoC4/cyfitter_cfg.c **** *
 201:Generated_Source\PSoC4/cyfitter_cfg.c **** * Parameters:
 202:Generated_Source\PSoC4/cyfitter_cfg.c **** *   void
 203:Generated_Source\PSoC4/cyfitter_cfg.c **** *
 204:Generated_Source\PSoC4/cyfitter_cfg.c **** * Return:
 205:Generated_Source\PSoC4/cyfitter_cfg.c **** *   void
ARM GAS  C:\Temp\ccmjQbyl.s 			page 7


 206:Generated_Source\PSoC4/cyfitter_cfg.c **** *
 207:Generated_Source\PSoC4/cyfitter_cfg.c **** *******************************************************************************/
 208:Generated_Source\PSoC4/cyfitter_cfg.c **** static void ClockSetup(void);
 209:Generated_Source\PSoC4/cyfitter_cfg.c **** CY_CFG_SECTION
 210:Generated_Source\PSoC4/cyfitter_cfg.c **** static void ClockSetup(void)
 211:Generated_Source\PSoC4/cyfitter_cfg.c **** {
 132              		.loc 1 211 0
 133              		.cfi_startproc
 134              		@ args = 0, pretend = 0, frame = 0
 135              		@ frame_needed = 0, uses_anonymous_args = 0
 136 0000 10B5     		push	{r4, lr}
 137              		.cfi_def_cfa_offset 8
 138              		.cfi_offset 4, -8
 139              		.cfi_offset 14, -4
 212:Generated_Source\PSoC4/cyfitter_cfg.c **** 	/* Enable HALF_EN before trimming for the flash accelerator. */
 213:Generated_Source\PSoC4/cyfitter_cfg.c **** 	CY_SET_REG32((void CYXDATA *)(CYREG_CLK_SELECT), (CY_GET_REG32((void *)CYREG_CLK_SELECT) | 0x00040
 140              		.loc 1 213 0
 141 0002 1B4C     		ldr	r4, .L8
 142 0004 2368     		ldr	r3, [r4]
 143 0006 8022     		movs	r2, #128
 144 0008 D202     		lsls	r2, r2, #11
 145 000a 1343     		orrs	r3, r2
 146 000c 2360     		str	r3, [r4]
 214:Generated_Source\PSoC4/cyfitter_cfg.c **** 
 215:Generated_Source\PSoC4/cyfitter_cfg.c **** 	/* Setup and trim IMO based on desired frequency. */
 216:Generated_Source\PSoC4/cyfitter_cfg.c **** 	CySysClkWriteImoFreq(24u);
 147              		.loc 1 216 0
 148 000e 1820     		movs	r0, #24
 149 0010 FFF7FEFF 		bl	CySysClkWriteImoFreq
 150              	.LVL15:
 217:Generated_Source\PSoC4/cyfitter_cfg.c **** 
 218:Generated_Source\PSoC4/cyfitter_cfg.c **** 	/* Disable HALF_EN since it is not required at this IMO frequency. */
 219:Generated_Source\PSoC4/cyfitter_cfg.c **** 	CY_SET_REG32((void CYXDATA *)(CYREG_CLK_SELECT), (CY_GET_REG32((void *)CYREG_CLK_SELECT) & 0xFFFBF
 151              		.loc 1 219 0
 152 0014 2268     		ldr	r2, [r4]
 153 0016 174B     		ldr	r3, .L8+4
 154 0018 1340     		ands	r3, r2
 155 001a 2360     		str	r3, [r4]
 220:Generated_Source\PSoC4/cyfitter_cfg.c **** 	/* CYDEV_CLK_ILO_CONFIG Starting address: CYDEV_CLK_ILO_CONFIG */
 221:Generated_Source\PSoC4/cyfitter_cfg.c **** 	CY_SET_REG32((void *)(CYREG_CLK_ILO_CONFIG), 0x80000006u);
 156              		.loc 1 221 0
 157 001c 164A     		ldr	r2, .L8+8
 158 001e 174B     		ldr	r3, .L8+12
 159 0020 1A60     		str	r2, [r3]
 222:Generated_Source\PSoC4/cyfitter_cfg.c **** 
 223:Generated_Source\PSoC4/cyfitter_cfg.c **** 
 224:Generated_Source\PSoC4/cyfitter_cfg.c **** 	/* CYDEV_CLK_SELECT00 Starting address: CYDEV_CLK_SELECT00 */
 225:Generated_Source\PSoC4/cyfitter_cfg.c **** 	CY_SET_REG32((void *)(CYREG_CLK_SELECT03), 0x00000011u);
 160              		.loc 1 225 0
 161 0022 1122     		movs	r2, #17
 162 0024 164B     		ldr	r3, .L8+16
 163 0026 1A60     		str	r2, [r3]
 226:Generated_Source\PSoC4/cyfitter_cfg.c **** 	CY_SET_REG32((void *)(CYREG_CLK_SELECT07), 0x00000020u);
 164              		.loc 1 226 0
 165 0028 0F32     		adds	r2, r2, #15
 166 002a 164B     		ldr	r3, .L8+20
 167 002c 1A60     		str	r2, [r3]
ARM GAS  C:\Temp\ccmjQbyl.s 			page 8


 227:Generated_Source\PSoC4/cyfitter_cfg.c **** 	CY_SET_REG32((void *)(CYREG_CLK_SELECT08), 0x00000021u);
 168              		.loc 1 227 0
 169 002e 0132     		adds	r2, r2, #1
 170 0030 154B     		ldr	r3, .L8+24
 171 0032 1A60     		str	r2, [r3]
 228:Generated_Source\PSoC4/cyfitter_cfg.c **** 	CY_SET_REG32((void *)(CYREG_CLK_SELECT09), 0x00000030u);
 172              		.loc 1 228 0
 173 0034 0F32     		adds	r2, r2, #15
 174 0036 154B     		ldr	r3, .L8+28
 175 0038 1A60     		str	r2, [r3]
 229:Generated_Source\PSoC4/cyfitter_cfg.c **** 	CY_SET_REG32((void *)(CYREG_CLK_SELECT10), 0x00000010u);
 176              		.loc 1 229 0
 177 003a 203A     		subs	r2, r2, #32
 178 003c 144B     		ldr	r3, .L8+32
 179 003e 1A60     		str	r2, [r3]
 230:Generated_Source\PSoC4/cyfitter_cfg.c **** 
 231:Generated_Source\PSoC4/cyfitter_cfg.c **** 	/* CYDEV_CLK_IMO_CONFIG Starting address: CYDEV_CLK_IMO_CONFIG */
 232:Generated_Source\PSoC4/cyfitter_cfg.c **** 	CY_SET_REG32((void *)(CYREG_CLK_IMO_CONFIG), 0x82000000u);
 180              		.loc 1 232 0
 181 0040 8222     		movs	r2, #130
 182 0042 1206     		lsls	r2, r2, #24
 183 0044 134B     		ldr	r3, .L8+36
 184 0046 1A60     		str	r2, [r3]
 233:Generated_Source\PSoC4/cyfitter_cfg.c **** 
 234:Generated_Source\PSoC4/cyfitter_cfg.c **** 	/* CYDEV_CLK_SELECT Starting address: CYDEV_CLK_SELECT */
 235:Generated_Source\PSoC4/cyfitter_cfg.c **** 	CY_SET_REG32((void *)(CYREG_CLK_SELECT), 0x00000000u);
 185              		.loc 1 235 0
 186 0048 0023     		movs	r3, #0
 187 004a 2360     		str	r3, [r4]
 236:Generated_Source\PSoC4/cyfitter_cfg.c **** 
 237:Generated_Source\PSoC4/cyfitter_cfg.c **** 	/* CYDEV_CLK_DIVIDER_A00 Starting address: CYDEV_CLK_DIVIDER_A00 */
 238:Generated_Source\PSoC4/cyfitter_cfg.c **** 	CY_SET_REG32((void *)(CYREG_CLK_DIVIDER_A00), 0x80000001u);
 188              		.loc 1 238 0
 189 004c 1249     		ldr	r1, .L8+40
 190 004e 134A     		ldr	r2, .L8+44
 191 0050 1160     		str	r1, [r2]
 239:Generated_Source\PSoC4/cyfitter_cfg.c **** 
 240:Generated_Source\PSoC4/cyfitter_cfg.c **** 	/* CYDEV_CLK_DIVIDER_B00 Starting address: CYDEV_CLK_DIVIDER_B00 */
 241:Generated_Source\PSoC4/cyfitter_cfg.c **** 	CY_SET_REG32((void *)(CYREG_CLK_DIVIDER_B00), 0x80000007u);
 192              		.loc 1 241 0
 193 0052 1349     		ldr	r1, .L8+48
 194 0054 134A     		ldr	r2, .L8+52
 195 0056 1160     		str	r1, [r2]
 242:Generated_Source\PSoC4/cyfitter_cfg.c **** 
 243:Generated_Source\PSoC4/cyfitter_cfg.c **** 	/* CYDEV_CLK_DIVIDER_C00 Starting address: CYDEV_CLK_DIVIDER_C00 */
 244:Generated_Source\PSoC4/cyfitter_cfg.c **** 	CY_SET_REG32((void *)(CYREG_CLK_DIVIDER_C00), 0x8000000Bu);
 196              		.loc 1 244 0
 197 0058 1349     		ldr	r1, .L8+56
 198 005a 144A     		ldr	r2, .L8+60
 199 005c 1160     		str	r1, [r2]
 245:Generated_Source\PSoC4/cyfitter_cfg.c **** 
 246:Generated_Source\PSoC4/cyfitter_cfg.c **** 	/* CYDEV_CLK_DIVIDER_A01 Starting address: CYDEV_CLK_DIVIDER_A01 */
 247:Generated_Source\PSoC4/cyfitter_cfg.c **** 	CY_SET_REG32((void *)(CYREG_CLK_DIVIDER_A01), 0x800000CFu);
 200              		.loc 1 247 0
 201 005e 1449     		ldr	r1, .L8+64
 202 0060 144A     		ldr	r2, .L8+68
 203 0062 1160     		str	r1, [r2]
ARM GAS  C:\Temp\ccmjQbyl.s 			page 9


 248:Generated_Source\PSoC4/cyfitter_cfg.c **** 
 249:Generated_Source\PSoC4/cyfitter_cfg.c **** 	/* CYDEV_CLK_DIVIDER_B01 Starting address: CYDEV_CLK_DIVIDER_B01 */
 250:Generated_Source\PSoC4/cyfitter_cfg.c **** 	CY_SET_REG32((void *)(CYREG_CLK_DIVIDER_B01), 0x800012BFu);
 204              		.loc 1 250 0
 205 0064 1449     		ldr	r1, .L8+72
 206 0066 154A     		ldr	r2, .L8+76
 207 0068 1160     		str	r1, [r2]
 251:Generated_Source\PSoC4/cyfitter_cfg.c **** 
 252:Generated_Source\PSoC4/cyfitter_cfg.c **** 	CY_SET_REG32((void *)(CYREG_WDT_CONFIG), 0x00000000u);
 208              		.loc 1 252 0
 209 006a 154A     		ldr	r2, .L8+80
 210 006c 1360     		str	r3, [r2]
 253:Generated_Source\PSoC4/cyfitter_cfg.c **** }
 211              		.loc 1 253 0
 212              		@ sp needed
 213 006e 10BD     		pop	{r4, pc}
 214              	.L9:
 215              		.align	2
 216              	.L8:
 217 0070 00010B40 		.word	1074462976
 218 0074 FFFFFBFF 		.word	-262145
 219 0078 06000080 		.word	-2147483642
 220 007c 04010B40 		.word	1074462980
 221 0080 0C020240 		.word	1073873420
 222 0084 1C020240 		.word	1073873436
 223 0088 20020240 		.word	1073873440
 224 008c 24020240 		.word	1073873444
 225 0090 28020240 		.word	1073873448
 226 0094 08010B40 		.word	1074462984
 227 0098 01000080 		.word	-2147483647
 228 009c 00000240 		.word	1073872896
 229 00a0 07000080 		.word	-2147483641
 230 00a4 40000240 		.word	1073872960
 231 00a8 0B000080 		.word	-2147483637
 232 00ac 80000240 		.word	1073873024
 233 00b0 CF000080 		.word	-2147483441
 234 00b4 04000240 		.word	1073872900
 235 00b8 BF120080 		.word	-2147478849
 236 00bc 44000240 		.word	1073872964
 237 00c0 0C020B40 		.word	1074463244
 238              		.cfi_endproc
 239              	.LFE4:
 240              		.size	ClockSetup, .-ClockSetup
 241              		.section	.text.SetAnalogRoutingPumps,"ax",%progbits
 242              		.align	2
 243              		.global	SetAnalogRoutingPumps
 244              		.code	16
 245              		.thumb_func
 246              		.type	SetAnalogRoutingPumps, %function
 247              	SetAnalogRoutingPumps:
 248              	.LFB6:
 254:Generated_Source\PSoC4/cyfitter_cfg.c **** 
 255:Generated_Source\PSoC4/cyfitter_cfg.c **** 
 256:Generated_Source\PSoC4/cyfitter_cfg.c **** /* Analog API Functions */
 257:Generated_Source\PSoC4/cyfitter_cfg.c **** 
 258:Generated_Source\PSoC4/cyfitter_cfg.c **** 
 259:Generated_Source\PSoC4/cyfitter_cfg.c **** /*******************************************************************************
ARM GAS  C:\Temp\ccmjQbyl.s 			page 10


 260:Generated_Source\PSoC4/cyfitter_cfg.c **** * Function Name: AnalogSetDefault
 261:Generated_Source\PSoC4/cyfitter_cfg.c **** ********************************************************************************
 262:Generated_Source\PSoC4/cyfitter_cfg.c **** *
 263:Generated_Source\PSoC4/cyfitter_cfg.c **** * Summary:
 264:Generated_Source\PSoC4/cyfitter_cfg.c **** *  Sets up the analog portions of the chip to default values based on chip
 265:Generated_Source\PSoC4/cyfitter_cfg.c **** *  configuration options from the project.
 266:Generated_Source\PSoC4/cyfitter_cfg.c **** *
 267:Generated_Source\PSoC4/cyfitter_cfg.c **** * Parameters:
 268:Generated_Source\PSoC4/cyfitter_cfg.c **** *  void
 269:Generated_Source\PSoC4/cyfitter_cfg.c **** *
 270:Generated_Source\PSoC4/cyfitter_cfg.c **** * Return:
 271:Generated_Source\PSoC4/cyfitter_cfg.c **** *  void
 272:Generated_Source\PSoC4/cyfitter_cfg.c **** *
 273:Generated_Source\PSoC4/cyfitter_cfg.c **** *******************************************************************************/
 274:Generated_Source\PSoC4/cyfitter_cfg.c **** static void AnalogSetDefault(void);
 275:Generated_Source\PSoC4/cyfitter_cfg.c **** static void AnalogSetDefault(void)
 276:Generated_Source\PSoC4/cyfitter_cfg.c **** {
 277:Generated_Source\PSoC4/cyfitter_cfg.c **** 	CY_SET_XTND_REG32((void CYFAR *)CYREG_SAR_MUX_SWITCH0, 0x00000001u);
 278:Generated_Source\PSoC4/cyfitter_cfg.c **** 	SetAnalogRoutingPumps(1);
 279:Generated_Source\PSoC4/cyfitter_cfg.c **** }
 280:Generated_Source\PSoC4/cyfitter_cfg.c **** 
 281:Generated_Source\PSoC4/cyfitter_cfg.c **** 
 282:Generated_Source\PSoC4/cyfitter_cfg.c **** /*******************************************************************************
 283:Generated_Source\PSoC4/cyfitter_cfg.c **** * Function Name: SetAnalogRoutingPumps
 284:Generated_Source\PSoC4/cyfitter_cfg.c **** ********************************************************************************
 285:Generated_Source\PSoC4/cyfitter_cfg.c **** *
 286:Generated_Source\PSoC4/cyfitter_cfg.c **** * Summary:
 287:Generated_Source\PSoC4/cyfitter_cfg.c **** * Enables or disables the analog pumps feeding analog routing switches.
 288:Generated_Source\PSoC4/cyfitter_cfg.c **** * Intended to be called at startup, based on the Vdda system configuration;
 289:Generated_Source\PSoC4/cyfitter_cfg.c **** * may be called during operation when the user informs us that the Vdda voltage crossed the pump th
 290:Generated_Source\PSoC4/cyfitter_cfg.c **** *
 291:Generated_Source\PSoC4/cyfitter_cfg.c **** * Parameters:
 292:Generated_Source\PSoC4/cyfitter_cfg.c **** *  enabled - 1 to enable the pumps, 0 to disable the pumps
 293:Generated_Source\PSoC4/cyfitter_cfg.c **** *
 294:Generated_Source\PSoC4/cyfitter_cfg.c **** * Return:
 295:Generated_Source\PSoC4/cyfitter_cfg.c **** *  void
 296:Generated_Source\PSoC4/cyfitter_cfg.c **** *
 297:Generated_Source\PSoC4/cyfitter_cfg.c **** *******************************************************************************/
 298:Generated_Source\PSoC4/cyfitter_cfg.c **** void SetAnalogRoutingPumps(uint8 enabled)
 299:Generated_Source\PSoC4/cyfitter_cfg.c **** {
 249              		.loc 1 299 0
 250              		.cfi_startproc
 251              		@ args = 0, pretend = 0, frame = 0
 252              		@ frame_needed = 0, uses_anonymous_args = 0
 253              		@ link register save eliminated.
 254              	.LVL16:
 300:Generated_Source\PSoC4/cyfitter_cfg.c **** 	uint32 regValue = CY_GET_XTND_REG32((void *)(CYREG_SAR_PUMP_CTRL));
 255              		.loc 1 300 0
 256 0000 064B     		ldr	r3, .L13
 257 0002 1B68     		ldr	r3, [r3]
 258              	.LVL17:
 301:Generated_Source\PSoC4/cyfitter_cfg.c **** 	if (enabled != 0u)
 259              		.loc 1 301 0
 260 0004 0028     		cmp	r0, #0
 261 0006 03D0     		beq	.L11
 302:Generated_Source\PSoC4/cyfitter_cfg.c **** 	{
 303:Generated_Source\PSoC4/cyfitter_cfg.c **** 		regValue |= 0x80000000u;
ARM GAS  C:\Temp\ccmjQbyl.s 			page 11


 262              		.loc 1 303 0
 263 0008 8022     		movs	r2, #128
 264 000a 1206     		lsls	r2, r2, #24
 265 000c 1343     		orrs	r3, r2
 266              	.LVL18:
 267 000e 01E0     		b	.L12
 268              	.L11:
 304:Generated_Source\PSoC4/cyfitter_cfg.c **** 	}
 305:Generated_Source\PSoC4/cyfitter_cfg.c **** 	else
 306:Generated_Source\PSoC4/cyfitter_cfg.c **** 	{
 307:Generated_Source\PSoC4/cyfitter_cfg.c **** 		regValue &= ~0x80000000u;
 269              		.loc 1 307 0
 270 0010 5B00     		lsls	r3, r3, #1
 271              	.LVL19:
 272 0012 5B08     		lsrs	r3, r3, #1
 273              	.LVL20:
 274              	.L12:
 308:Generated_Source\PSoC4/cyfitter_cfg.c **** 	}
 309:Generated_Source\PSoC4/cyfitter_cfg.c **** 	CY_SET_XTND_REG32((void *)(CYREG_SAR_PUMP_CTRL), regValue);
 275              		.loc 1 309 0
 276 0014 014A     		ldr	r2, .L13
 277 0016 1360     		str	r3, [r2]
 310:Generated_Source\PSoC4/cyfitter_cfg.c **** }
 278              		.loc 1 310 0
 279              		@ sp needed
 280 0018 7047     		bx	lr
 281              	.L14:
 282 001a C046     		.align	2
 283              	.L13:
 284 001c 80031A40 		.word	1075446656
 285              		.cfi_endproc
 286              	.LFE6:
 287              		.size	SetAnalogRoutingPumps, .-SetAnalogRoutingPumps
 288              		.section	.text.AnalogSetDefault,"ax",%progbits
 289              		.align	2
 290              		.code	16
 291              		.thumb_func
 292              		.type	AnalogSetDefault, %function
 293              	AnalogSetDefault:
 294              	.LFB5:
 276:Generated_Source\PSoC4/cyfitter_cfg.c **** 	CY_SET_XTND_REG32((void CYFAR *)CYREG_SAR_MUX_SWITCH0, 0x00000001u);
 295              		.loc 1 276 0
 296              		.cfi_startproc
 297              		@ args = 0, pretend = 0, frame = 0
 298              		@ frame_needed = 0, uses_anonymous_args = 0
 299 0000 10B5     		push	{r4, lr}
 300              		.cfi_def_cfa_offset 8
 301              		.cfi_offset 4, -8
 302              		.cfi_offset 14, -4
 277:Generated_Source\PSoC4/cyfitter_cfg.c **** 	SetAnalogRoutingPumps(1);
 303              		.loc 1 277 0
 304 0002 0122     		movs	r2, #1
 305 0004 024B     		ldr	r3, .L16
 306 0006 1A60     		str	r2, [r3]
 278:Generated_Source\PSoC4/cyfitter_cfg.c **** }
 307              		.loc 1 278 0
 308 0008 0120     		movs	r0, #1
ARM GAS  C:\Temp\ccmjQbyl.s 			page 12


 309 000a FFF7FEFF 		bl	SetAnalogRoutingPumps
 310              	.LVL21:
 279:Generated_Source\PSoC4/cyfitter_cfg.c **** 
 311              		.loc 1 279 0
 312              		@ sp needed
 313 000e 10BD     		pop	{r4, pc}
 314              	.L17:
 315              		.align	2
 316              	.L16:
 317 0010 00031A40 		.word	1075446528
 318              		.cfi_endproc
 319              	.LFE5:
 320              		.size	AnalogSetDefault, .-AnalogSetDefault
 321              		.section	.psocinit
 322              		.align	2
 323              		.global	cyfitter_cfg
 324              		.code	16
 325              		.thumb_func
 326              		.type	cyfitter_cfg, %function
 327              	cyfitter_cfg:
 328              	.LFB7:
 311:Generated_Source\PSoC4/cyfitter_cfg.c **** 
 312:Generated_Source\PSoC4/cyfitter_cfg.c **** 
 313:Generated_Source\PSoC4/cyfitter_cfg.c **** 
 314:Generated_Source\PSoC4/cyfitter_cfg.c **** 
 315:Generated_Source\PSoC4/cyfitter_cfg.c **** /*******************************************************************************
 316:Generated_Source\PSoC4/cyfitter_cfg.c **** * Function Name: cyfitter_cfg
 317:Generated_Source\PSoC4/cyfitter_cfg.c **** ********************************************************************************
 318:Generated_Source\PSoC4/cyfitter_cfg.c **** * Summary:
 319:Generated_Source\PSoC4/cyfitter_cfg.c **** *  This function is called by the start-up code for the selected device. It
 320:Generated_Source\PSoC4/cyfitter_cfg.c **** *  performs all of the necessary device configuration based on the design
 321:Generated_Source\PSoC4/cyfitter_cfg.c **** *  settings.  This includes settings from the Design Wide Resources (DWR) such
 322:Generated_Source\PSoC4/cyfitter_cfg.c **** *  as Clocks and Pins as well as any component configuration that is necessary.
 323:Generated_Source\PSoC4/cyfitter_cfg.c **** *
 324:Generated_Source\PSoC4/cyfitter_cfg.c **** * Parameters:
 325:Generated_Source\PSoC4/cyfitter_cfg.c **** *   void
 326:Generated_Source\PSoC4/cyfitter_cfg.c **** *
 327:Generated_Source\PSoC4/cyfitter_cfg.c **** * Return:
 328:Generated_Source\PSoC4/cyfitter_cfg.c **** *   void
 329:Generated_Source\PSoC4/cyfitter_cfg.c **** *
 330:Generated_Source\PSoC4/cyfitter_cfg.c **** *******************************************************************************/
 331:Generated_Source\PSoC4/cyfitter_cfg.c **** CY_CFG_SECTION
 332:Generated_Source\PSoC4/cyfitter_cfg.c **** void cyfitter_cfg(void)
 333:Generated_Source\PSoC4/cyfitter_cfg.c **** {
 329              		.loc 1 333 0
 330              		.cfi_startproc
 331              		@ args = 0, pretend = 0, frame = 0
 332              		@ frame_needed = 0, uses_anonymous_args = 0
 333 00c4 10B5     		push	{r4, lr}
 334              		.cfi_def_cfa_offset 8
 335              		.cfi_offset 4, -8
 336              		.cfi_offset 14, -4
 334:Generated_Source\PSoC4/cyfitter_cfg.c **** 	/* Disable interrupts by default. Let user enable if/when they want. */
 335:Generated_Source\PSoC4/cyfitter_cfg.c **** 	CyGlobalIntDisable;
 337              		.loc 1 335 0
 338              		.syntax divided
 339              	@ 335 "Generated_Source\PSoC4\cyfitter_cfg.c" 1
ARM GAS  C:\Temp\ccmjQbyl.s 			page 13


 340 00c6 72B6     		CPSID   i
 341              	@ 0 "" 2
 342              	.LVL22:
 343              		.thumb
 344              		.syntax unified
 345              	.LBB3:
 336:Generated_Source\PSoC4/cyfitter_cfg.c **** 
 337:Generated_Source\PSoC4/cyfitter_cfg.c **** 	{
 338:Generated_Source\PSoC4/cyfitter_cfg.c **** 		static const uint32 CYCODE cy_cfg_addr_table[] = {
 339:Generated_Source\PSoC4/cyfitter_cfg.c **** 			0x400F3102u, /* Base address: 0x400F3100 Count: 2 */
 340:Generated_Source\PSoC4/cyfitter_cfg.c **** 			0x400F3213u, /* Base address: 0x400F3200 Count: 19 */
 341:Generated_Source\PSoC4/cyfitter_cfg.c **** 			0x400F3315u, /* Base address: 0x400F3300 Count: 21 */
 342:Generated_Source\PSoC4/cyfitter_cfg.c **** 			0x400F4002u, /* Base address: 0x400F4000 Count: 2 */
 343:Generated_Source\PSoC4/cyfitter_cfg.c **** 			0x400F410Cu, /* Base address: 0x400F4100 Count: 12 */
 344:Generated_Source\PSoC4/cyfitter_cfg.c **** 			0x400F4203u, /* Base address: 0x400F4200 Count: 3 */
 345:Generated_Source\PSoC4/cyfitter_cfg.c **** 			0x400F4310u, /* Base address: 0x400F4300 Count: 16 */
 346:Generated_Source\PSoC4/cyfitter_cfg.c **** 		};
 347:Generated_Source\PSoC4/cyfitter_cfg.c **** 
 348:Generated_Source\PSoC4/cyfitter_cfg.c **** 		static const cy_cfg_addrvalue_t CYCODE cy_cfg_data_table[] = {
 349:Generated_Source\PSoC4/cyfitter_cfg.c **** 			{0x86u, 0x10u},
 350:Generated_Source\PSoC4/cyfitter_cfg.c **** 			{0xE2u, 0x02u},
 351:Generated_Source\PSoC4/cyfitter_cfg.c **** 			{0x82u, 0x20u},
 352:Generated_Source\PSoC4/cyfitter_cfg.c **** 			{0x86u, 0x01u},
 353:Generated_Source\PSoC4/cyfitter_cfg.c **** 			{0x8Au, 0x04u},
 354:Generated_Source\PSoC4/cyfitter_cfg.c **** 			{0x8Cu, 0x55u},
 355:Generated_Source\PSoC4/cyfitter_cfg.c **** 			{0x8Eu, 0xAAu},
 356:Generated_Source\PSoC4/cyfitter_cfg.c **** 			{0x92u, 0x40u},
 357:Generated_Source\PSoC4/cyfitter_cfg.c **** 			{0x96u, 0x08u},
 358:Generated_Source\PSoC4/cyfitter_cfg.c **** 			{0x9Au, 0x10u},
 359:Generated_Source\PSoC4/cyfitter_cfg.c **** 			{0x9Eu, 0x80u},
 360:Generated_Source\PSoC4/cyfitter_cfg.c **** 			{0xA2u, 0x02u},
 361:Generated_Source\PSoC4/cyfitter_cfg.c **** 			{0xA4u, 0x0Fu},
 362:Generated_Source\PSoC4/cyfitter_cfg.c **** 			{0xA6u, 0xF0u},
 363:Generated_Source\PSoC4/cyfitter_cfg.c **** 			{0xA8u, 0x33u},
 364:Generated_Source\PSoC4/cyfitter_cfg.c **** 			{0xAAu, 0xCCu},
 365:Generated_Source\PSoC4/cyfitter_cfg.c **** 			{0xB4u, 0xFFu},
 366:Generated_Source\PSoC4/cyfitter_cfg.c **** 			{0xBEu, 0x10u},
 367:Generated_Source\PSoC4/cyfitter_cfg.c **** 			{0xD8u, 0x04u},
 368:Generated_Source\PSoC4/cyfitter_cfg.c **** 			{0xDBu, 0x04u},
 369:Generated_Source\PSoC4/cyfitter_cfg.c **** 			{0xDFu, 0x01u},
 370:Generated_Source\PSoC4/cyfitter_cfg.c **** 			{0x02u, 0x98u},
 371:Generated_Source\PSoC4/cyfitter_cfg.c **** 			{0x03u, 0x01u},
 372:Generated_Source\PSoC4/cyfitter_cfg.c **** 			{0x08u, 0x0Au},
 373:Generated_Source\PSoC4/cyfitter_cfg.c **** 			{0x0Bu, 0x09u},
 374:Generated_Source\PSoC4/cyfitter_cfg.c **** 			{0x10u, 0x28u},
 375:Generated_Source\PSoC4/cyfitter_cfg.c **** 			{0x13u, 0x02u},
 376:Generated_Source\PSoC4/cyfitter_cfg.c **** 			{0x19u, 0x20u},
 377:Generated_Source\PSoC4/cyfitter_cfg.c **** 			{0x68u, 0x28u},
 378:Generated_Source\PSoC4/cyfitter_cfg.c **** 			{0x6Bu, 0x01u},
 379:Generated_Source\PSoC4/cyfitter_cfg.c **** 			{0x83u, 0x03u},
 380:Generated_Source\PSoC4/cyfitter_cfg.c **** 			{0x85u, 0x20u},
 381:Generated_Source\PSoC4/cyfitter_cfg.c **** 			{0x87u, 0x04u},
 382:Generated_Source\PSoC4/cyfitter_cfg.c **** 			{0x88u, 0x02u},
 383:Generated_Source\PSoC4/cyfitter_cfg.c **** 			{0x8Au, 0x88u},
 384:Generated_Source\PSoC4/cyfitter_cfg.c **** 			{0x8Cu, 0x08u},
 385:Generated_Source\PSoC4/cyfitter_cfg.c **** 			{0x9Au, 0x10u},
 386:Generated_Source\PSoC4/cyfitter_cfg.c **** 			{0xC0u, 0x0Fu},
ARM GAS  C:\Temp\ccmjQbyl.s 			page 14


 387:Generated_Source\PSoC4/cyfitter_cfg.c **** 			{0xC2u, 0x0Fu},
 388:Generated_Source\PSoC4/cyfitter_cfg.c **** 			{0xC4u, 0x0Eu},
 389:Generated_Source\PSoC4/cyfitter_cfg.c **** 			{0xE0u, 0xA0u},
 390:Generated_Source\PSoC4/cyfitter_cfg.c **** 			{0xE6u, 0x09u},
 391:Generated_Source\PSoC4/cyfitter_cfg.c **** 			{0x0Bu, 0x08u},
 392:Generated_Source\PSoC4/cyfitter_cfg.c **** 			{0xC2u, 0x40u},
 393:Generated_Source\PSoC4/cyfitter_cfg.c **** 			{0x03u, 0x04u},
 394:Generated_Source\PSoC4/cyfitter_cfg.c **** 			{0x0Bu, 0x20u},
 395:Generated_Source\PSoC4/cyfitter_cfg.c **** 			{0x4Fu, 0x40u},
 396:Generated_Source\PSoC4/cyfitter_cfg.c **** 			{0x83u, 0x04u},
 397:Generated_Source\PSoC4/cyfitter_cfg.c **** 			{0x87u, 0x40u},
 398:Generated_Source\PSoC4/cyfitter_cfg.c **** 			{0x8Bu, 0x14u},
 399:Generated_Source\PSoC4/cyfitter_cfg.c **** 			{0x93u, 0x08u},
 400:Generated_Source\PSoC4/cyfitter_cfg.c **** 			{0xC0u, 0x40u},
 401:Generated_Source\PSoC4/cyfitter_cfg.c **** 			{0xC2u, 0x10u},
 402:Generated_Source\PSoC4/cyfitter_cfg.c **** 			{0xD2u, 0x20u},
 403:Generated_Source\PSoC4/cyfitter_cfg.c **** 			{0xE0u, 0x80u},
 404:Generated_Source\PSoC4/cyfitter_cfg.c **** 			{0xE6u, 0x40u},
 405:Generated_Source\PSoC4/cyfitter_cfg.c **** 			{0x0Au, 0x04u},
 406:Generated_Source\PSoC4/cyfitter_cfg.c **** 			{0x86u, 0x04u},
 407:Generated_Source\PSoC4/cyfitter_cfg.c **** 			{0xC2u, 0x02u},
 408:Generated_Source\PSoC4/cyfitter_cfg.c **** 			{0x01u, 0x08u},
 409:Generated_Source\PSoC4/cyfitter_cfg.c **** 			{0x05u, 0x02u},
 410:Generated_Source\PSoC4/cyfitter_cfg.c **** 			{0x09u, 0x80u},
 411:Generated_Source\PSoC4/cyfitter_cfg.c **** 			{0x0Bu, 0x80u},
 412:Generated_Source\PSoC4/cyfitter_cfg.c **** 			{0x1Cu, 0x20u},
 413:Generated_Source\PSoC4/cyfitter_cfg.c **** 			{0x68u, 0x10u},
 414:Generated_Source\PSoC4/cyfitter_cfg.c **** 			{0x81u, 0x80u},
 415:Generated_Source\PSoC4/cyfitter_cfg.c **** 			{0x85u, 0x02u},
 416:Generated_Source\PSoC4/cyfitter_cfg.c **** 			{0x8Bu, 0x40u},
 417:Generated_Source\PSoC4/cyfitter_cfg.c **** 			{0x8Du, 0x08u},
 418:Generated_Source\PSoC4/cyfitter_cfg.c **** 			{0xC0u, 0x0Cu},
 419:Generated_Source\PSoC4/cyfitter_cfg.c **** 			{0xC2u, 0x0Au},
 420:Generated_Source\PSoC4/cyfitter_cfg.c **** 			{0xC6u, 0x04u},
 421:Generated_Source\PSoC4/cyfitter_cfg.c **** 			{0xDAu, 0x02u},
 422:Generated_Source\PSoC4/cyfitter_cfg.c **** 			{0xE2u, 0x02u},
 423:Generated_Source\PSoC4/cyfitter_cfg.c **** 			{0xE6u, 0x01u},
 424:Generated_Source\PSoC4/cyfitter_cfg.c **** 		};
 425:Generated_Source\PSoC4/cyfitter_cfg.c **** 
 426:Generated_Source\PSoC4/cyfitter_cfg.c **** 
 427:Generated_Source\PSoC4/cyfitter_cfg.c **** 
 428:Generated_Source\PSoC4/cyfitter_cfg.c **** 		CYPACKED typedef struct {
 429:Generated_Source\PSoC4/cyfitter_cfg.c **** 			void CYFAR *address;
 430:Generated_Source\PSoC4/cyfitter_cfg.c **** 			uint16 size;
 431:Generated_Source\PSoC4/cyfitter_cfg.c **** 		} CYPACKED_ATTR cfg_memset_t;
 432:Generated_Source\PSoC4/cyfitter_cfg.c **** 
 433:Generated_Source\PSoC4/cyfitter_cfg.c **** 		static const cfg_memset_t CYCODE cfg_memset_list[] = {
 434:Generated_Source\PSoC4/cyfitter_cfg.c **** 			/* address, size */
 435:Generated_Source\PSoC4/cyfitter_cfg.c **** 			{(void CYFAR *)(CYDEV_UDB_P0_U0_BASE), 1024u},
 436:Generated_Source\PSoC4/cyfitter_cfg.c **** 			{(void CYFAR *)(CYDEV_UDB_DSI0_BASE), 1024u},
 437:Generated_Source\PSoC4/cyfitter_cfg.c **** 		};
 438:Generated_Source\PSoC4/cyfitter_cfg.c **** 
 439:Generated_Source\PSoC4/cyfitter_cfg.c **** 		uint8 CYDATA i;
 440:Generated_Source\PSoC4/cyfitter_cfg.c **** 
 441:Generated_Source\PSoC4/cyfitter_cfg.c **** 		/* Zero out critical memory blocks before beginning configuration */
 442:Generated_Source\PSoC4/cyfitter_cfg.c **** 		for (i = 0u; i < (sizeof(cfg_memset_list)/sizeof(cfg_memset_list[0])); i++)
 346              		.loc 1 442 0
ARM GAS  C:\Temp\ccmjQbyl.s 			page 15


 347 00c8 0024     		movs	r4, #0
 348 00ca 0FE0     		b	.L19
 349              	.LVL23:
 350              	.L20:
 351              	.LBB4:
 443:Generated_Source\PSoC4/cyfitter_cfg.c **** 		{
 444:Generated_Source\PSoC4/cyfitter_cfg.c **** 			const cfg_memset_t CYCODE * CYDATA ms = &cfg_memset_list[i];
 445:Generated_Source\PSoC4/cyfitter_cfg.c **** 			CYMEMZERO(ms->address, (size_t)(uint32)(ms->size));
 352              		.loc 1 445 0 discriminator 3
 353 00cc 2A48     		ldr	r0, .L21
 354 00ce 6200     		lsls	r2, r4, #1
 355 00d0 1319     		adds	r3, r2, r4
 356 00d2 5900     		lsls	r1, r3, #1
 357 00d4 0B00     		movs	r3, r1
 358 00d6 4118     		adds	r1, r0, r1
 359 00d8 8988     		ldrh	r1, [r1, #4]
 360 00da 1A5A     		ldrh	r2, [r3, r0]
 361 00dc C318     		adds	r3, r0, r3
 362 00de 5888     		ldrh	r0, [r3, #2]
 363 00e0 0004     		lsls	r0, r0, #16
 364 00e2 1043     		orrs	r0, r2
 365 00e4 FFF7FEFF 		bl	CYMEMZERO
 366              	.LVL24:
 367              	.LBE4:
 442:Generated_Source\PSoC4/cyfitter_cfg.c **** 		{
 368              		.loc 1 442 0 discriminator 3
 369 00e8 0134     		adds	r4, r4, #1
 370              	.LVL25:
 371 00ea E4B2     		uxtb	r4, r4
 372              	.LVL26:
 373              	.L19:
 442:Generated_Source\PSoC4/cyfitter_cfg.c **** 		{
 374              		.loc 1 442 0 is_stmt 0 discriminator 1
 375 00ec 012C     		cmp	r4, #1
 376 00ee EDD9     		bls	.L20
 446:Generated_Source\PSoC4/cyfitter_cfg.c **** 		}
 447:Generated_Source\PSoC4/cyfitter_cfg.c **** 
 448:Generated_Source\PSoC4/cyfitter_cfg.c **** 		cfg_write_bytes32(cy_cfg_addr_table, cy_cfg_data_table);
 377              		.loc 1 448 0 is_stmt 1
 378 00f0 2149     		ldr	r1, .L21
 379 00f2 0C31     		adds	r1, r1, #12
 380 00f4 2148     		ldr	r0, .L21+4
 381 00f6 2430     		adds	r0, r0, #36
 382 00f8 FFF7FEFF 		bl	cfg_write_bytes32
 383              	.LVL27:
 449:Generated_Source\PSoC4/cyfitter_cfg.c **** 
 450:Generated_Source\PSoC4/cyfitter_cfg.c **** 		/* HSIOM Starting address: CYDEV_HSIOM_BASE */
 451:Generated_Source\PSoC4/cyfitter_cfg.c **** 		CY_SET_REG32((void *)(CYDEV_HSIOM_BASE), 0x00990000u);
 384              		.loc 1 451 0
 385 00fc 9923     		movs	r3, #153
 386 00fe 1B04     		lsls	r3, r3, #16
 387 0100 1F4A     		ldr	r2, .L21+8
 388 0102 1360     		str	r3, [r2]
 452:Generated_Source\PSoC4/cyfitter_cfg.c **** 		CY_SET_REG32((void *)(CYREG_HSIOM_PORT_SEL3), 0x0000EE00u);
 389              		.loc 1 452 0
 390 0104 EE21     		movs	r1, #238
 391 0106 0902     		lsls	r1, r1, #8
ARM GAS  C:\Temp\ccmjQbyl.s 			page 16


 392 0108 1E4A     		ldr	r2, .L21+12
 393 010a 1160     		str	r1, [r2]
 453:Generated_Source\PSoC4/cyfitter_cfg.c **** 
 454:Generated_Source\PSoC4/cyfitter_cfg.c **** 		/* UDB_PA_0 Starting address: CYDEV_UDB_PA0_BASE */
 455:Generated_Source\PSoC4/cyfitter_cfg.c **** 		CY_SET_REG32((void *)(CYDEV_UDB_PA0_BASE), 0x00990000u);
 394              		.loc 1 455 0
 395 010c 1E4A     		ldr	r2, .L21+16
 396 010e 1360     		str	r3, [r2]
 456:Generated_Source\PSoC4/cyfitter_cfg.c **** 
 457:Generated_Source\PSoC4/cyfitter_cfg.c **** 		/* UDB_PA_1 Starting address: CYDEV_UDB_PA1_BASE */
 458:Generated_Source\PSoC4/cyfitter_cfg.c **** 		CY_SET_REG32((void *)(CYDEV_UDB_PA1_BASE), 0x00990000u);
 397              		.loc 1 458 0
 398 0110 1E4A     		ldr	r2, .L21+20
 399 0112 1360     		str	r3, [r2]
 459:Generated_Source\PSoC4/cyfitter_cfg.c **** 
 460:Generated_Source\PSoC4/cyfitter_cfg.c **** 		/* UDB_PA_2 Starting address: CYDEV_UDB_PA2_BASE */
 461:Generated_Source\PSoC4/cyfitter_cfg.c **** 		CY_SET_REG32((void *)(CYDEV_UDB_PA2_BASE), 0x00990000u);
 400              		.loc 1 461 0
 401 0114 1E4A     		ldr	r2, .L21+24
 402 0116 1360     		str	r3, [r2]
 462:Generated_Source\PSoC4/cyfitter_cfg.c **** 
 463:Generated_Source\PSoC4/cyfitter_cfg.c **** 		/* UDB_PA_3 Starting address: CYDEV_UDB_PA3_BASE */
 464:Generated_Source\PSoC4/cyfitter_cfg.c **** 		CY_SET_REG32((void *)(CYDEV_UDB_PA3_BASE), 0x00990000u);
 403              		.loc 1 464 0
 404 0118 1E4A     		ldr	r2, .L21+28
 405 011a 1360     		str	r3, [r2]
 465:Generated_Source\PSoC4/cyfitter_cfg.c **** 
 466:Generated_Source\PSoC4/cyfitter_cfg.c **** 		/* TCPWM_CNT2 Starting address: CYDEV_TCPWM_CNT2_TR_CTRL0 */
 467:Generated_Source\PSoC4/cyfitter_cfg.c **** 		CY_SET_REG32((void *)(CYREG_TCPWM_CNT2_TR_CTRL0), 0x0000002Fu);
 406              		.loc 1 467 0
 407 011c 2F22     		movs	r2, #47
 408 011e 1E4B     		ldr	r3, .L21+32
 409 0120 1A60     		str	r2, [r3]
 468:Generated_Source\PSoC4/cyfitter_cfg.c **** 
 469:Generated_Source\PSoC4/cyfitter_cfg.c **** 		/* Enable UDB array and digital routing */
 470:Generated_Source\PSoC4/cyfitter_cfg.c **** 		CY_SET_XTND_REG8((void *)CYREG_UDB_UDBIF_WAIT_CFG, (uint8)((CY_GET_XTND_REG8((void *)CYREG_UDB_UD
 410              		.loc 1 470 0
 411 0122 1E49     		ldr	r1, .L21+36
 412 0124 0B78     		ldrb	r3, [r1]
 413 0126 0D32     		adds	r2, r2, #13
 414 0128 9343     		bics	r3, r2
 415 012a 1422     		movs	r2, #20
 416 012c 1343     		orrs	r3, r2
 417 012e DBB2     		uxtb	r3, r3
 418 0130 0B70     		strb	r3, [r1]
 471:Generated_Source\PSoC4/cyfitter_cfg.c **** 		CY_SET_XTND_REG8((void *)CYREG_UDB_UDBIF_BANK_CTL, (uint8)(CY_GET_XTND_REG8((void *)CYREG_UDB_UDB
 419              		.loc 1 471 0
 420 0132 1B4A     		ldr	r2, .L21+40
 421 0134 1178     		ldrb	r1, [r2]
 422 0136 1623     		movs	r3, #22
 423 0138 0B43     		orrs	r3, r1
 424 013a DBB2     		uxtb	r3, r3
 425 013c 1370     		strb	r3, [r2]
 426              	.LBE3:
 472:Generated_Source\PSoC4/cyfitter_cfg.c **** 	}
 473:Generated_Source\PSoC4/cyfitter_cfg.c **** 
 474:Generated_Source\PSoC4/cyfitter_cfg.c **** 	/* Perform second pass device configuration. These items must be configured in specific order afte
ARM GAS  C:\Temp\ccmjQbyl.s 			page 17


 475:Generated_Source\PSoC4/cyfitter_cfg.c **** 	/* IOPINS0_0 Starting address: CYDEV_PRT0_BASE */
 476:Generated_Source\PSoC4/cyfitter_cfg.c **** 	CY_SET_REG32((void *)(CYDEV_PRT0_BASE), 0x00000020u);
 427              		.loc 1 476 0
 428 013e 2023     		movs	r3, #32
 429 0140 184A     		ldr	r2, .L21+44
 430 0142 1360     		str	r3, [r2]
 477:Generated_Source\PSoC4/cyfitter_cfg.c **** 	CY_SET_REG32((void *)(CYREG_PRT0_PC), 0x00071D80u);
 431              		.loc 1 477 0
 432 0144 1849     		ldr	r1, .L21+48
 433 0146 194A     		ldr	r2, .L21+52
 434 0148 1160     		str	r1, [r2]
 478:Generated_Source\PSoC4/cyfitter_cfg.c **** 	CY_SET_REG32((void *)(CYREG_PRT0_PC2), 0x00000020u);
 435              		.loc 1 478 0
 436 014a 194A     		ldr	r2, .L21+56
 437 014c 1360     		str	r3, [r2]
 479:Generated_Source\PSoC4/cyfitter_cfg.c **** 
 480:Generated_Source\PSoC4/cyfitter_cfg.c **** 	/* IOPINS0_1 Starting address: CYDEV_PRT1_BASE */
 481:Generated_Source\PSoC4/cyfitter_cfg.c **** 	CY_SET_REG32((void *)(CYREG_PRT1_PC), 0x00181040u);
 438              		.loc 1 481 0
 439 014e 194A     		ldr	r2, .L21+60
 440 0150 194B     		ldr	r3, .L21+64
 441 0152 1A60     		str	r2, [r3]
 482:Generated_Source\PSoC4/cyfitter_cfg.c **** 
 483:Generated_Source\PSoC4/cyfitter_cfg.c **** 	/* IOPINS0_2 Starting address: CYDEV_PRT2_BASE */
 484:Generated_Source\PSoC4/cyfitter_cfg.c **** 	CY_SET_REG32((void *)(CYDEV_PRT2_BASE), 0x00000001u);
 442              		.loc 1 484 0
 443 0154 0123     		movs	r3, #1
 444 0156 194A     		ldr	r2, .L21+68
 445 0158 1360     		str	r3, [r2]
 485:Generated_Source\PSoC4/cyfitter_cfg.c **** 	CY_SET_REG32((void *)(CYREG_PRT2_PC), 0x00040000u);
 446              		.loc 1 485 0
 447 015a 8021     		movs	r1, #128
 448 015c C902     		lsls	r1, r1, #11
 449 015e 184A     		ldr	r2, .L21+72
 450 0160 1160     		str	r1, [r2]
 486:Generated_Source\PSoC4/cyfitter_cfg.c **** 	CY_SET_REG32((void *)(CYREG_PRT2_PC2), 0x00000001u);
 451              		.loc 1 486 0
 452 0162 184A     		ldr	r2, .L21+76
 453 0164 1360     		str	r3, [r2]
 487:Generated_Source\PSoC4/cyfitter_cfg.c **** 
 488:Generated_Source\PSoC4/cyfitter_cfg.c **** 	/* IOPINS0_3 Starting address: CYDEV_PRT3_BASE */
 489:Generated_Source\PSoC4/cyfitter_cfg.c **** 	CY_SET_REG32((void *)(CYREG_PRT3_PC), 0x00041D89u);
 454              		.loc 1 489 0
 455 0166 184A     		ldr	r2, .L21+80
 456 0168 184B     		ldr	r3, .L21+84
 457 016a 1A60     		str	r2, [r3]
 490:Generated_Source\PSoC4/cyfitter_cfg.c **** 
 491:Generated_Source\PSoC4/cyfitter_cfg.c **** 
 492:Generated_Source\PSoC4/cyfitter_cfg.c **** 	/* Setup clocks based on selections from Clock DWR */
 493:Generated_Source\PSoC4/cyfitter_cfg.c **** 	ClockSetup();
 458              		.loc 1 493 0
 459 016c FFF748FF 		bl	ClockSetup
 460              	.LVL28:
 494:Generated_Source\PSoC4/cyfitter_cfg.c **** 
 495:Generated_Source\PSoC4/cyfitter_cfg.c **** 	/* Perform basic analog initialization to defaults */
 496:Generated_Source\PSoC4/cyfitter_cfg.c **** 	AnalogSetDefault();
 461              		.loc 1 496 0
ARM GAS  C:\Temp\ccmjQbyl.s 			page 18


 462 0170 FFF7FEFF 		bl	AnalogSetDefault
 463              	.LVL29:
 497:Generated_Source\PSoC4/cyfitter_cfg.c **** 
 498:Generated_Source\PSoC4/cyfitter_cfg.c **** }
 464              		.loc 1 498 0
 465              		@ sp needed
 466              	.LVL30:
 467 0174 10BD     		pop	{r4, pc}
 468              	.L22:
 469 0176 C046     		.align	2
 470              	.L21:
 471 0178 00000000 		.word	.LANCHOR0
 472 017c 80000000 		.word	.LANCHOR1
 473 0180 00000140 		.word	1073807360
 474 0184 0C000140 		.word	1073807372
 475 0188 00500F40 		.word	1074745344
 476 018c 10500F40 		.word	1074745360
 477 0190 20500F40 		.word	1074745376
 478 0194 30500F40 		.word	1074745392
 479 0198 A0010540 		.word	1074069920
 480 019c 01700F40 		.word	1074753537
 481 01a0 00700F40 		.word	1074753536
 482 01a4 00000440 		.word	1074003968
 483 01a8 801D0700 		.word	466304
 484 01ac 08000440 		.word	1074003976
 485 01b0 18000440 		.word	1074003992
 486 01b4 40101800 		.word	1577024
 487 01b8 08010440 		.word	1074004232
 488 01bc 00020440 		.word	1074004480
 489 01c0 08020440 		.word	1074004488
 490 01c4 18020440 		.word	1074004504
 491 01c8 891D0400 		.word	269705
 492 01cc 08030440 		.word	1074004744
 493              		.cfi_endproc
 494              	.LFE7:
 495              		.size	cyfitter_cfg, .-cyfitter_cfg
 496              		.section	.rodata
 497              		.align	2
 498              		.set	.LANCHOR0,. + 0
 499              		.set	.LANCHOR1,. + 128
 500              		.type	cfg_memset_list.4876, %object
 501              		.size	cfg_memset_list.4876, 12
 502              	cfg_memset_list.4876:
 503 0000 00300F40 		.word	1074737152
 504 0004 0004     		.short	1024
 505 0006 00400F40 		.4byte	1074741248
 506 000a 0004     		.short	1024
 507              		.type	cy_cfg_data_table.4871, %object
 508              		.size	cy_cfg_data_table.4871, 150
 509              	cy_cfg_data_table.4871:
 510 000c 86       		.byte	-122
 511 000d 10       		.byte	16
 512 000e E2       		.byte	-30
 513 000f 02       		.byte	2
 514 0010 82       		.byte	-126
 515 0011 20       		.byte	32
 516 0012 86       		.byte	-122
ARM GAS  C:\Temp\ccmjQbyl.s 			page 19


 517 0013 01       		.byte	1
 518 0014 8A       		.byte	-118
 519 0015 04       		.byte	4
 520 0016 8C       		.byte	-116
 521 0017 55       		.byte	85
 522 0018 8E       		.byte	-114
 523 0019 AA       		.byte	-86
 524 001a 92       		.byte	-110
 525 001b 40       		.byte	64
 526 001c 96       		.byte	-106
 527 001d 08       		.byte	8
 528 001e 9A       		.byte	-102
 529 001f 10       		.byte	16
 530 0020 9E       		.byte	-98
 531 0021 80       		.byte	-128
 532 0022 A2       		.byte	-94
 533 0023 02       		.byte	2
 534 0024 A4       		.byte	-92
 535 0025 0F       		.byte	15
 536 0026 A6       		.byte	-90
 537 0027 F0       		.byte	-16
 538 0028 A8       		.byte	-88
 539 0029 33       		.byte	51
 540 002a AA       		.byte	-86
 541 002b CC       		.byte	-52
 542 002c B4       		.byte	-76
 543 002d FF       		.byte	-1
 544 002e BE       		.byte	-66
 545 002f 10       		.byte	16
 546 0030 D8       		.byte	-40
 547 0031 04       		.byte	4
 548 0032 DB       		.byte	-37
 549 0033 04       		.byte	4
 550 0034 DF       		.byte	-33
 551 0035 01       		.byte	1
 552 0036 02       		.byte	2
 553 0037 98       		.byte	-104
 554 0038 03       		.byte	3
 555 0039 01       		.byte	1
 556 003a 08       		.byte	8
 557 003b 0A       		.byte	10
 558 003c 0B       		.byte	11
 559 003d 09       		.byte	9
 560 003e 10       		.byte	16
 561 003f 28       		.byte	40
 562 0040 13       		.byte	19
 563 0041 02       		.byte	2
 564 0042 19       		.byte	25
 565 0043 20       		.byte	32
 566 0044 68       		.byte	104
 567 0045 28       		.byte	40
 568 0046 6B       		.byte	107
 569 0047 01       		.byte	1
 570 0048 83       		.byte	-125
 571 0049 03       		.byte	3
 572 004a 85       		.byte	-123
 573 004b 20       		.byte	32
ARM GAS  C:\Temp\ccmjQbyl.s 			page 20


 574 004c 87       		.byte	-121
 575 004d 04       		.byte	4
 576 004e 88       		.byte	-120
 577 004f 02       		.byte	2
 578 0050 8A       		.byte	-118
 579 0051 88       		.byte	-120
 580 0052 8C       		.byte	-116
 581 0053 08       		.byte	8
 582 0054 9A       		.byte	-102
 583 0055 10       		.byte	16
 584 0056 C0       		.byte	-64
 585 0057 0F       		.byte	15
 586 0058 C2       		.byte	-62
 587 0059 0F       		.byte	15
 588 005a C4       		.byte	-60
 589 005b 0E       		.byte	14
 590 005c E0       		.byte	-32
 591 005d A0       		.byte	-96
 592 005e E6       		.byte	-26
 593 005f 09       		.byte	9
 594 0060 0B       		.byte	11
 595 0061 08       		.byte	8
 596 0062 C2       		.byte	-62
 597 0063 40       		.byte	64
 598 0064 03       		.byte	3
 599 0065 04       		.byte	4
 600 0066 0B       		.byte	11
 601 0067 20       		.byte	32
 602 0068 4F       		.byte	79
 603 0069 40       		.byte	64
 604 006a 83       		.byte	-125
 605 006b 04       		.byte	4
 606 006c 87       		.byte	-121
 607 006d 40       		.byte	64
 608 006e 8B       		.byte	-117
 609 006f 14       		.byte	20
 610 0070 93       		.byte	-109
 611 0071 08       		.byte	8
 612 0072 C0       		.byte	-64
 613 0073 40       		.byte	64
 614 0074 C2       		.byte	-62
 615 0075 10       		.byte	16
 616 0076 D2       		.byte	-46
 617 0077 20       		.byte	32
 618 0078 E0       		.byte	-32
 619 0079 80       		.byte	-128
 620 007a E6       		.byte	-26
 621 007b 40       		.byte	64
 622 007c 0A       		.byte	10
 623 007d 04       		.byte	4
 624 007e 86       		.byte	-122
 625 007f 04       		.byte	4
 626 0080 C2       		.byte	-62
 627 0081 02       		.byte	2
 628 0082 01       		.byte	1
 629 0083 08       		.byte	8
 630 0084 05       		.byte	5
ARM GAS  C:\Temp\ccmjQbyl.s 			page 21


 631 0085 02       		.byte	2
 632 0086 09       		.byte	9
 633 0087 80       		.byte	-128
 634 0088 0B       		.byte	11
 635 0089 80       		.byte	-128
 636 008a 1C       		.byte	28
 637 008b 20       		.byte	32
 638 008c 68       		.byte	104
 639 008d 10       		.byte	16
 640 008e 81       		.byte	-127
 641 008f 80       		.byte	-128
 642 0090 85       		.byte	-123
 643 0091 02       		.byte	2
 644 0092 8B       		.byte	-117
 645 0093 40       		.byte	64
 646 0094 8D       		.byte	-115
 647 0095 08       		.byte	8
 648 0096 C0       		.byte	-64
 649 0097 0C       		.byte	12
 650 0098 C2       		.byte	-62
 651 0099 0A       		.byte	10
 652 009a C6       		.byte	-58
 653 009b 04       		.byte	4
 654 009c DA       		.byte	-38
 655 009d 02       		.byte	2
 656 009e E2       		.byte	-30
 657 009f 02       		.byte	2
 658 00a0 E6       		.byte	-26
 659 00a1 01       		.byte	1
 660 00a2 0000     		.space	2
 661              		.type	cy_cfg_addr_table.4870, %object
 662              		.size	cy_cfg_addr_table.4870, 28
 663              	cy_cfg_addr_table.4870:
 664 00a4 02310F40 		.word	1074737410
 665 00a8 13320F40 		.word	1074737683
 666 00ac 15330F40 		.word	1074737941
 667 00b0 02400F40 		.word	1074741250
 668 00b4 0C410F40 		.word	1074741516
 669 00b8 03420F40 		.word	1074741763
 670 00bc 10430F40 		.word	1074742032
 671              		.text
 672              	.Letext0:
 673              		.file 2 "c:\\program files (x86)\\cypress\\psoc creator\\4.2\\psoc creator\\import\\gnu\\arm\\5.4.
 674              		.file 3 "Generated_Source\\PSoC4\\cytypes.h"
 675              		.file 4 "Generated_Source\\PSoC4\\CyLib.h"