ARM GAS  C:\Temp\ccolbiUs.s 			page 1


   1              		.syntax unified
   2              		.cpu cortex-m0
   3              		.fpu softvfp
   4              		.eabi_attribute 20, 1
   5              		.eabi_attribute 21, 1
   6              		.eabi_attribute 23, 3
   7              		.eabi_attribute 24, 1
   8              		.eabi_attribute 25, 1
   9              		.eabi_attribute 26, 1
  10              		.eabi_attribute 30, 1
  11              		.eabi_attribute 34, 0
  12              		.eabi_attribute 18, 4
  13              		.thumb
  14              		.syntax unified
  15              		.file	"main.c"
  16              		.text
  17              	.Ltext0:
  18              		.cfi_sections	.debug_frame
  19              		.section	.text.PWM_Int,"ax",%progbits
  20              		.align	2
  21              		.global	PWM_Int
  22              		.code	16
  23              		.thumb_func
  24              		.type	PWM_Int, %function
  25              	PWM_Int:
  26              	.LFB34:
  27              		.file 1 "main.c"
   1:main.c        **** /* ========================================
   2:main.c        ****  *
   3:main.c        ****  * Copyright YOUR COMPANY, THE YEAR
   4:main.c        ****  * All Rights Reserved
   5:main.c        ****  * UNPUBLISHED, LICENSED SOFTWARE.
   6:main.c        ****  *
   7:main.c        ****  * CONFIDENTIAL AND PROPRIETARY INFORMATION
   8:main.c        ****  * WHICH IS THE PROPERTY OF your company.
   9:main.c        ****  *
  10:main.c        ****  * ========================================
  11:main.c        **** */
  12:main.c        **** #include "project.h"
  13:main.c        **** #include <stdbool.h>
  14:main.c        **** #include <stdio.h>
  15:main.c        **** 
  16:main.c        **** volatile uint16 PulseLength=0;  // The PWM pulse length of the video switching signal
  17:main.c        **** int q=0;
  18:main.c        **** float vbat = 5;
  19:main.c        **** uint16 prevPulse=0, ppPulse;      // last two pulses
  20:main.c        **** float dPulse, ddPulse;
  21:main.c        **** 
  22:main.c        **** uint32 tAccrued=0;
  23:main.c        **** bool flatline=true;
  24:main.c        **** 
  25:main.c        **** 
  26:main.c        **** uint16 low_time = 0;
  27:main.c        **** uint16 nthTime=0;
  28:main.c        **** uint16 override;
  29:main.c        **** 
  30:main.c        **** 
ARM GAS  C:\Temp\ccolbiUs.s 			page 2


  31:main.c        **** 
  32:main.c        **** CY_ISR(ADC_ISR)
  33:main.c        **** {
  34:main.c        ****     
  35:main.c        ****     int x=0,y =0;
  36:main.c        ****     ADC_StartConvert(); 
  37:main.c        ****     ADC_IsEndConversion(ADC_WAIT_FOR_RESULT);
  38:main.c        ****     x = ADC_GetResult16(0);
  39:main.c        ****     y = ADC_CountsTo_Volts(0,x);
  40:main.c        ****     vbat = y * 5/3.3;
  41:main.c        ****     nthTime++;
  42:main.c        ****     Analog_Timer_ClearInterrupt(Analog_Timer_INTR_MASK_TC);
  43:main.c        **** }
  44:main.c        **** 
  45:main.c        **** CY_ISR(PWM_Int)
  46:main.c        **** {   
  28              		.loc 1 46 0
  29              		.cfi_startproc
  30              		@ args = 0, pretend = 0, frame = 0
  31              		@ frame_needed = 0, uses_anonymous_args = 0
  32 0000 10B5     		push	{r4, lr}
  33              		.cfi_def_cfa_offset 8
  34              		.cfi_offset 4, -8
  35              		.cfi_offset 14, -4
  47:main.c        ****     
  48:main.c        ****     static bool firstTime = true; //Whether an instance is the first time the PWM int is called
  49:main.c        ****     static int t0;
  50:main.c        ****     override=6;
  36              		.loc 1 50 0
  37 0002 0622     		movs	r2, #6
  38 0004 0A4B     		ldr	r3, .L2
  39 0006 1A80     		strh	r2, [r3]
  51:main.c        **** 
  52:main.c        ****     q++;
  40              		.loc 1 52 0
  41 0008 0A4C     		ldr	r4, .L2+4
  42 000a 2368     		ldr	r3, [r4]
  43 000c 0133     		adds	r3, r3, #1
  44 000e 2360     		str	r3, [r4]
  53:main.c        ****     PulseLength = PWM_Timer_ReadCapture()-t0 ; // This will give the total time that the pulse has 
  45              		.loc 1 53 0
  46 0010 FFF7FEFF 		bl	PWM_Timer_ReadCapture
  47              	.LVL0:
  48 0014 80B2     		uxth	r0, r0
  49 0016 A080     		strh	r0, [r4, #4]
  54:main.c        ****     firstTime = true; //Next call will be first of new cycle
  55:main.c        ****     PWM_Timer_Stop(); //Stop the timer
  50              		.loc 1 55 0
  51 0018 FFF7FEFF 		bl	PWM_Timer_Stop
  52              	.LVL1:
  56:main.c        ****     PWM_Timer_WriteCounter(0); //reset it
  53              		.loc 1 56 0
  54 001c 0020     		movs	r0, #0
  55 001e FFF7FEFF 		bl	PWM_Timer_WriteCounter
  56              	.LVL2:
  57:main.c        ****     PWM_Timer_Start(); //restart the timer
  57              		.loc 1 57 0
ARM GAS  C:\Temp\ccolbiUs.s 			page 3


  58 0022 FFF7FEFF 		bl	PWM_Timer_Start
  59              	.LVL3:
  58:main.c        **** 
  59:main.c        ****     PWM_Timer_ClearInterrupt(PWM_Timer_INTR_MASK_CC_MATCH); //clear the interrupt on the timer
  60              		.loc 1 59 0
  61 0026 0220     		movs	r0, #2
  62 0028 FFF7FEFF 		bl	PWM_Timer_ClearInterrupt
  63              	.LVL4:
  60:main.c        **** }
  64              		.loc 1 60 0
  65              		@ sp needed
  66 002c 10BD     		pop	{r4, pc}
  67              	.L3:
  68 002e C046     		.align	2
  69              	.L2:
  70 0030 00000000 		.word	override
  71 0034 00000000 		.word	.LANCHOR0
  72              		.cfi_endproc
  73              	.LFE34:
  74              		.size	PWM_Int, .-PWM_Int
  75              		.global	__aeabi_f2iz
  76              		.global	__aeabi_i2d
  77              		.global	__aeabi_ddiv
  78              		.global	__aeabi_d2f
  79              		.section	.text.ADC_ISR,"ax",%progbits
  80              		.align	2
  81              		.global	ADC_ISR
  82              		.code	16
  83              		.thumb_func
  84              		.type	ADC_ISR, %function
  85              	ADC_ISR:
  86              	.LFB33:
  33:main.c        ****     
  87              		.loc 1 33 0
  88              		.cfi_startproc
  89              		@ args = 0, pretend = 0, frame = 0
  90              		@ frame_needed = 0, uses_anonymous_args = 0
  91 0000 10B5     		push	{r4, lr}
  92              		.cfi_def_cfa_offset 8
  93              		.cfi_offset 4, -8
  94              		.cfi_offset 14, -4
  95              	.LVL5:
  36:main.c        ****     ADC_IsEndConversion(ADC_WAIT_FOR_RESULT);
  96              		.loc 1 36 0
  97 0002 FFF7FEFF 		bl	ADC_StartConvert
  98              	.LVL6:
  37:main.c        ****     x = ADC_GetResult16(0);
  99              		.loc 1 37 0
 100 0006 0220     		movs	r0, #2
 101 0008 FFF7FEFF 		bl	ADC_IsEndConversion
 102              	.LVL7:
  38:main.c        ****     y = ADC_CountsTo_Volts(0,x);
 103              		.loc 1 38 0
 104 000c 0020     		movs	r0, #0
 105 000e FFF7FEFF 		bl	ADC_GetResult16
 106              	.LVL8:
 107 0012 0100     		movs	r1, r0
ARM GAS  C:\Temp\ccolbiUs.s 			page 4


 108              	.LVL9:
  39:main.c        ****     vbat = y * 5/3.3;
 109              		.loc 1 39 0
 110 0014 0020     		movs	r0, #0
 111 0016 FFF7FEFF 		bl	ADC_CountsTo_Volts
 112              	.LVL10:
 113 001a FFF7FEFF 		bl	__aeabi_f2iz
 114              	.LVL11:
  40:main.c        ****     nthTime++;
 115              		.loc 1 40 0
 116 001e 8300     		lsls	r3, r0, #2
 117 0020 1818     		adds	r0, r3, r0
 118              	.LVL12:
 119 0022 FFF7FEFF 		bl	__aeabi_i2d
 120              	.LVL13:
 121 0026 084A     		ldr	r2, .L5
 122 0028 084B     		ldr	r3, .L5+4
 123 002a FFF7FEFF 		bl	__aeabi_ddiv
 124              	.LVL14:
 125 002e FFF7FEFF 		bl	__aeabi_d2f
 126              	.LVL15:
 127 0032 074B     		ldr	r3, .L5+8
 128 0034 1860     		str	r0, [r3]
  41:main.c        ****     Analog_Timer_ClearInterrupt(Analog_Timer_INTR_MASK_TC);
 129              		.loc 1 41 0
 130 0036 074A     		ldr	r2, .L5+12
 131 0038 D388     		ldrh	r3, [r2, #6]
 132 003a 0133     		adds	r3, r3, #1
 133 003c D380     		strh	r3, [r2, #6]
  42:main.c        **** }
 134              		.loc 1 42 0
 135 003e 0120     		movs	r0, #1
 136 0040 FFF7FEFF 		bl	Analog_Timer_ClearInterrupt
 137              	.LVL16:
  43:main.c        **** 
 138              		.loc 1 43 0
 139              		@ sp needed
 140 0044 10BD     		pop	{r4, pc}
 141              	.L6:
 142 0046 C046     		.align	2
 143              	.L5:
 144 0048 66666666 		.word	1717986918
 145 004c 66660A40 		.word	1074423398
 146 0050 00000000 		.word	.LANCHOR1
 147 0054 00000000 		.word	.LANCHOR0
 148              		.cfi_endproc
 149              	.LFE33:
 150              		.size	ADC_ISR, .-ADC_ISR
 151              		.section	.text.wdtISR,"ax",%progbits
 152              		.align	2
 153              		.global	wdtISR
 154              		.code	16
 155              		.thumb_func
 156              		.type	wdtISR, %function
 157              	wdtISR:
 158              	.LFB35:
  61:main.c        **** 
ARM GAS  C:\Temp\ccolbiUs.s 			page 5


  62:main.c        **** int wdtIsrCnt = 0;
  63:main.c        **** int nResets;
  64:main.c        **** int timeRemain;
  65:main.c        **** 
  66:main.c        **** 
  67:main.c        **** //ISR CALLED upon PSOC reset
  68:main.c        **** //On second ISR Call: stop ISR and ensure 3 unhandled ISRS for reset
  69:main.c        **** CY_ISR(wdtISR)
  70:main.c        **** {
 159              		.loc 1 70 0
 160              		.cfi_startproc
 161              		@ args = 0, pretend = 0, frame = 0
 162              		@ frame_needed = 0, uses_anonymous_args = 0
 163 0000 10B5     		push	{r4, lr}
 164              		.cfi_def_cfa_offset 8
 165              		.cfi_offset 4, -8
 166              		.cfi_offset 14, -4
  71:main.c        ****     if(wdtIsrCnt == 0)
 167              		.loc 1 71 0
 168 0002 074B     		ldr	r3, .L10
 169 0004 9B68     		ldr	r3, [r3, #8]
 170 0006 002B     		cmp	r3, #0
 171 0008 02D1     		bne	.L8
  72:main.c        ****         WDT_ISR_ClearPending();
 172              		.loc 1 72 0
 173 000a FFF7FEFF 		bl	WDT_ISR_ClearPending
 174              	.LVL17:
 175 000e 01E0     		b	.L9
 176              	.L8:
  73:main.c        ****     else
  74:main.c        ****     {
  75:main.c        ****         WDT_ISR_Stop();
 177              		.loc 1 75 0
 178 0010 FFF7FEFF 		bl	WDT_ISR_Stop
 179              	.LVL18:
 180              	.L9:
  76:main.c        ****     }
  77:main.c        ****     wdtIsrCnt++;
 181              		.loc 1 77 0
 182 0014 024A     		ldr	r2, .L10
 183 0016 9368     		ldr	r3, [r2, #8]
 184 0018 0133     		adds	r3, r3, #1
 185 001a 9360     		str	r3, [r2, #8]
  78:main.c        **** }
 186              		.loc 1 78 0
 187              		@ sp needed
 188 001c 10BD     		pop	{r4, pc}
 189              	.L11:
 190 001e C046     		.align	2
 191              	.L10:
 192 0020 00000000 		.word	.LANCHOR0
 193              		.cfi_endproc
 194              	.LFE35:
 195              		.size	wdtISR, .-wdtISR
 196              		.section	.text.main,"ax",%progbits
 197              		.align	2
 198              		.global	main
ARM GAS  C:\Temp\ccolbiUs.s 			page 6


 199              		.code	16
 200              		.thumb_func
 201              		.type	main, %function
 202              	main:
 203              	.LFB36:
  79:main.c        **** 
  80:main.c        **** int main(void)
  81:main.c        **** {
 204              		.loc 1 81 0
 205              		.cfi_startproc
 206              		@ args = 0, pretend = 0, frame = 24
 207              		@ frame_needed = 0, uses_anonymous_args = 0
 208 0000 70B5     		push	{r4, r5, r6, lr}
 209              		.cfi_def_cfa_offset 16
 210              		.cfi_offset 4, -16
 211              		.cfi_offset 5, -12
 212              		.cfi_offset 6, -8
 213              		.cfi_offset 14, -4
 214 0002 8AB0     		sub	sp, sp, #40
 215              		.cfi_def_cfa_offset 56
  82:main.c        ****     CySysWdtWriteMode(CY_SYS_WDT_COUNTER0, CY_SYS_WDT_MODE_INT_RESET);         // put WDT on Reset 
 216              		.loc 1 82 0
 217 0004 0321     		movs	r1, #3
 218 0006 0020     		movs	r0, #0
 219 0008 FFF7FEFF 		bl	CySysWdtSetMode
 220              	.LVL19:
  83:main.c        ****     
  84:main.c        ****     CySysWdtWriteMatch(CY_SYS_WDT_COUNTER0, ( (uint32) (5000*32000) / 1000) ); //1 second delay bef
 221              		.loc 1 84 0
 222 000c 2E49     		ldr	r1, .L20
 223 000e 0020     		movs	r0, #0
 224 0010 FFF7FEFF 		bl	CySysWdtSetMatch
 225              	.LVL20:
  85:main.c        ****     CySysWdtWriteClearOnMatch( CY_SYS_WDT_COUNTER0, 1u );                      // Clear the counter
 226              		.loc 1 85 0
 227 0014 0121     		movs	r1, #1
 228 0016 0020     		movs	r0, #0
 229 0018 FFF7FEFF 		bl	CySysWdtSetClearOnMatch
 230              	.LVL21:
  86:main.c        ****     //enable counter
  87:main.c        ****     CySysWdtEnable(CY_SYS_WDT_COUNTER0_MASK); // Enable the watchdog counter
 231              		.loc 1 87 0
 232 001c 0120     		movs	r0, #1
 233 001e FFF7FEFF 		bl	CySysWdtEnable
 234              	.LVL22:
 235              	.L13:
  88:main.c        ****     
  89:main.c        ****     while(!CySysWdtReadEnabledStatus(CY_SYS_WDT_COUNTER0));  // pause until it is enabled
 236              		.loc 1 89 0 discriminator 1
 237 0022 0020     		movs	r0, #0
 238 0024 FFF7FEFF 		bl	CySysWdtGetEnabledStatus
 239              	.LVL23:
 240 0028 0028     		cmp	r0, #0
 241 002a FAD0     		beq	.L13
  90:main.c        ****     PWM_Timer_Int_StartEx(PWM_Int);
 242              		.loc 1 90 0
 243 002c 2748     		ldr	r0, .L20+4
ARM GAS  C:\Temp\ccolbiUs.s 			page 7


 244 002e FFF7FEFF 		bl	PWM_Timer_Int_StartEx
 245              	.LVL24:
  91:main.c        ****    // ANALOG_INT_StartEx(ADC_ISR);
  92:main.c        ****     CyGlobalIntEnable; /* Enable global interrupts. */
 246              		.loc 1 92 0
 247              		.syntax divided
 248              	@ 92 "main.c" 1
 249 0032 62B6     		CPSIE   i
 250              	@ 0 "" 2
  93:main.c        **** 
  94:main.c        ****     /* Place your initialization/startup code here (e.g. MyInst_Start()) */
  95:main.c        ****     PWM_Timer_Start();
 251              		.loc 1 95 0
 252              		.thumb
 253              		.syntax unified
 254 0034 FFF7FEFF 		bl	PWM_Timer_Start
 255              	.LVL25:
  96:main.c        ****     //Analog_Timer_Start();
  97:main.c        ****     PWM_Timer_Pulse_Start();
 256              		.loc 1 97 0
 257 0038 FFF7FEFF 		bl	PWM_Timer_Pulse_Start
 258              	.LVL26:
  98:main.c        ****     UART_Start();
 259              		.loc 1 98 0
 260 003c FFF7FEFF 		bl	UART_Start
 261              	.LVL27:
  99:main.c        ****         
 100:main.c        ****     char data[20];
 101:main.c        ****   //  PinSelect_Write(0);
 102:main.c        ****     int i = 0;
 262              		.loc 1 102 0
 263 0040 0026     		movs	r6, #0
 264              	.LVL28:
 265              	.L16:
 266              	.LBB2:
 103:main.c        ****     for(;; i++)
 104:main.c        ****     {
 105:main.c        ****         /*
 106:main.c        ****         PinSelect_Write(i%6);
 107:main.c        ****         for(int q=0; q< (i%6 +1); q++)
 108:main.c        ****         {
 109:main.c        ****             Red_Write(1);
 110:main.c        ****             Green_Write(1);
 111:main.c        ****             Blue_Write(0);
 112:main.c        ****             CyDelay(500);
 113:main.c        ****             Blue_Write(1);
 114:main.c        ****             CyDelay(500);
 115:main.c        ****         }*/
 116:main.c        ****         
 117:main.c        ****         int Red_Val, Green_Val;
 118:main.c        ****         int Blue_Val = 0;
 119:main.c        ****         if(PulseLength < 4920 && PulseLength > 0) 
 267              		.loc 1 119 0
 268 0042 234B     		ldr	r3, .L20+8
 269 0044 9B88     		ldrh	r3, [r3, #4]
 270 0046 9BB2     		uxth	r3, r3
 271 0048 224A     		ldr	r2, .L20+12
ARM GAS  C:\Temp\ccolbiUs.s 			page 8


 272 004a 9342     		cmp	r3, r2
 273 004c 06D8     		bhi	.L17
 274              		.loc 1 119 0 is_stmt 0 discriminator 1
 275 004e 204B     		ldr	r3, .L20+8
 276 0050 9B88     		ldrh	r3, [r3, #4]
 277 0052 9BB2     		uxth	r3, r3
 278 0054 002B     		cmp	r3, #0
 279 0056 03D1     		bne	.L18
 120:main.c        ****         {
 121:main.c        ****             Red_Val = 1;
 122:main.c        ****             Green_Val = 1;
 123:main.c        ****         }
 124:main.c        ****         else
 125:main.c        ****         {
 126:main.c        ****             Red_Val = 0;
 280              		.loc 1 126 0 is_stmt 1
 281 0058 0024     		movs	r4, #0
 282 005a 02E0     		b	.L14
 283              	.L17:
 284 005c 0024     		movs	r4, #0
 285 005e 00E0     		b	.L14
 286              	.L18:
 121:main.c        ****             Green_Val = 1;
 287              		.loc 1 121 0
 288 0060 0124     		movs	r4, #1
 289              	.L14:
 290              	.LVL29:
 127:main.c        ****             Green_Val = 1;
 128:main.c        ****         }
 129:main.c        ****         
 130:main.c        **** 
 131:main.c        ****         //Write out the camera feed to the Video Switch board
 132:main.c        ****         //feedNo = 0; //DEBUG WITH THIS FEED
 133:main.c        ****         snprintf(data,35,"DATA  %5d %5d %3d %4d\n    " , PulseLength, low_time, override ,i);
 291              		.loc 1 133 0
 292 0062 1B4A     		ldr	r2, .L20+8
 293 0064 9388     		ldrh	r3, [r2, #4]
 294 0066 9BB2     		uxth	r3, r3
 295 0068 0296     		str	r6, [sp, #8]
 296 006a 1B4D     		ldr	r5, .L20+16
 297 006c 2988     		ldrh	r1, [r5]
 298 006e 0191     		str	r1, [sp, #4]
 299 0070 9289     		ldrh	r2, [r2, #12]
 300 0072 0092     		str	r2, [sp]
 301 0074 194A     		ldr	r2, .L20+20
 302 0076 2321     		movs	r1, #35
 303 0078 05A8     		add	r0, sp, #20
 304 007a FFF7FEFF 		bl	snprintf
 305              	.LVL30:
 134:main.c        ****         UART_UartPutString(data);
 306              		.loc 1 134 0
 307 007e 05A8     		add	r0, sp, #20
 308 0080 FFF7FEFF 		bl	UART_UartPutString
 309              	.LVL31:
 135:main.c        ****         if(override-- <=0)
 310              		.loc 1 135 0
 311 0084 2B88     		ldrh	r3, [r5]
ARM GAS  C:\Temp\ccolbiUs.s 			page 9


 312 0086 5A1E     		subs	r2, r3, #1
 313 0088 2A80     		strh	r2, [r5]
 314 008a 002B     		cmp	r3, #0
 315 008c 05D1     		bne	.L19
 136:main.c        ****         {
 137:main.c        ****             override = 0;
 316              		.loc 1 137 0
 317 008e 0022     		movs	r2, #0
 318 0090 114B     		ldr	r3, .L20+16
 319 0092 1A80     		strh	r2, [r3]
 320              	.LVL32:
 138:main.c        ****             Red_Val =1;
 139:main.c        ****             Green_Val=0;
 321              		.loc 1 139 0
 322 0094 0025     		movs	r5, #0
 138:main.c        ****             Red_Val =1;
 323              		.loc 1 138 0
 324 0096 0124     		movs	r4, #1
 325 0098 00E0     		b	.L15
 326              	.LVL33:
 327              	.L19:
 328 009a 0125     		movs	r5, #1
 329              	.LVL34:
 330              	.L15:
 140:main.c        ****         }
 141:main.c        ****         Red_Write(!Red_Val);  
 331              		.loc 1 141 0
 332 009c 6042     		rsbs	r0, r4, #0
 333 009e 6041     		adcs	r0, r0, r4
 334              	.LVL35:
 335 00a0 C0B2     		uxtb	r0, r0
 336 00a2 FFF7FEFF 		bl	Red_Write
 337              	.LVL36:
 142:main.c        ****         Green_Write(!Green_Val);
 338              		.loc 1 142 0
 339 00a6 6842     		rsbs	r0, r5, #0
 340 00a8 6841     		adcs	r0, r0, r5
 341              	.LVL37:
 342 00aa C0B2     		uxtb	r0, r0
 343 00ac FFF7FEFF 		bl	Green_Write
 344              	.LVL38:
 143:main.c        ****         Blue_Write(!Blue_Val);
 345              		.loc 1 143 0
 346 00b0 0120     		movs	r0, #1
 347 00b2 FFF7FEFF 		bl	Blue_Write
 348              	.LVL39:
 144:main.c        ****         CySysWdtResetCounters(CY_SYS_WDT_COUNTER0_RESET);
 349              		.loc 1 144 0
 350 00b6 0820     		movs	r0, #8
 351 00b8 FFF7FEFF 		bl	CySysWdtResetCounters
 352              	.LVL40:
 145:main.c        ****         CyDelay(300);
 353              		.loc 1 145 0
 354 00bc 9620     		movs	r0, #150
 355 00be 4000     		lsls	r0, r0, #1
 356 00c0 FFF7FEFF 		bl	CyDelay
 357              	.LVL41:
ARM GAS  C:\Temp\ccolbiUs.s 			page 10


 358              	.LBE2:
 103:main.c        ****     {
 359              		.loc 1 103 0
 360 00c4 0136     		adds	r6, r6, #1
 361              	.LVL42:
 146:main.c        **** 
 147:main.c        ****     }
 362              		.loc 1 147 0
 363 00c6 BCE7     		b	.L16
 364              	.L21:
 365              		.align	2
 366              	.L20:
 367 00c8 00710200 		.word	160000
 368 00cc 00000000 		.word	PWM_Int
 369 00d0 00000000 		.word	.LANCHOR0
 370 00d4 37130000 		.word	4919
 371 00d8 00000000 		.word	override
 372 00dc 00000000 		.word	.LC7
 373              		.cfi_endproc
 374              	.LFE36:
 375              		.size	main, .-main
 376              		.comm	timeRemain,4,4
 377              		.comm	nResets,4,4
 378              		.global	wdtIsrCnt
 379              		.comm	override,2,2
 380              		.global	nthTime
 381              		.global	low_time
 382              		.global	flatline
 383              		.global	tAccrued
 384              		.comm	ddPulse,4,4
 385              		.comm	dPulse,4,4
 386              		.comm	ppPulse,2,2
 387              		.global	prevPulse
 388              		.global	vbat
 389              		.global	q
 390              		.global	PulseLength
 391              		.data
 392              		.align	2
 393              		.set	.LANCHOR1,. + 0
 394              		.type	vbat, %object
 395              		.size	vbat, 4
 396              	vbat:
 397 0000 0000A040 		.word	1084227584
 398              		.type	flatline, %object
 399              		.size	flatline, 1
 400              	flatline:
 401 0004 01       		.byte	1
 402              		.section	.rodata.str1.4,"aMS",%progbits,1
 403              		.align	2
 404              	.LC7:
 405 0000 44415441 		.ascii	"DATA  %5d %5d %3d %4d\012    \000"
 405      20202535 
 405      64202535 
 405      64202533 
 405      64202534 
 406              		.bss
 407              		.align	2
ARM GAS  C:\Temp\ccolbiUs.s 			page 11


 408              		.set	.LANCHOR0,. + 0
 409              		.type	q, %object
 410              		.size	q, 4
 411              	q:
 412 0000 00000000 		.space	4
 413              		.type	PulseLength, %object
 414              		.size	PulseLength, 2
 415              	PulseLength:
 416 0004 0000     		.space	2
 417              		.type	nthTime, %object
 418              		.size	nthTime, 2
 419              	nthTime:
 420 0006 0000     		.space	2
 421              		.type	wdtIsrCnt, %object
 422              		.size	wdtIsrCnt, 4
 423              	wdtIsrCnt:
 424 0008 00000000 		.space	4
 425              		.type	low_time, %object
 426              		.size	low_time, 2
 427              	low_time:
 428 000c 0000     		.space	2
 429 000e 0000     		.space	2
 430              		.type	tAccrued, %object
 431              		.size	tAccrued, 4
 432              	tAccrued:
 433 0010 00000000 		.space	4
 434              		.type	prevPulse, %object
 435              		.size	prevPulse, 2
 436              	prevPulse:
 437 0014 0000     		.space	2
 438              		.text
 439              	.Letext0:
 440              		.file 2 "Generated_Source\\PSoC4/cytypes.h"
 441              		.file 3 "Generated_Source\\PSoC4/PWM_Timer.h"
 442              		.file 4 "Generated_Source\\PSoC4/ADC.h"
 443              		.file 5 "Generated_Source\\PSoC4/Analog_Timer.h"
 444              		.file 6 "Generated_Source\\PSoC4/WDT_ISR.h"
 445              		.file 7 "c:\\program files (x86)\\cypress\\psoc creator\\4.2\\psoc creator\\import\\gnu\\arm\\5.4.
 446              		.file 8 "Generated_Source\\PSoC4/UART_SPI_UART.h"
 447              		.file 9 "Generated_Source\\PSoC4/Red.h"
 448              		.file 10 "Generated_Source\\PSoC4/Green.h"
 449              		.file 11 "Generated_Source\\PSoC4/Blue.h"
 450              		.file 12 "Generated_Source\\PSoC4/CyLFClk.h"
 451              		.file 13 "Generated_Source\\PSoC4/CyLib.h"
 452              		.file 14 "Generated_Source\\PSoC4/PWM_Timer_Int.h"
 453              		.file 15 "Generated_Source\\PSoC4/PWM_Timer_Pulse.h"
 454              		.file 16 "Generated_Source\\PSoC4/UART.h"