ARM GAS  C:\Temp\ccSP0J3H.s 			page 1


   1              		.syntax unified
   2              		.cpu cortex-m0
   3              		.fpu softvfp
   4              		.eabi_attribute 20, 1
   5              		.eabi_attribute 21, 1
   6              		.eabi_attribute 23, 3
   7              		.eabi_attribute 24, 1
   8              		.eabi_attribute 25, 1
   9              		.eabi_attribute 26, 1
  10              		.eabi_attribute 30, 1
  11              		.eabi_attribute 34, 0
  12              		.eabi_attribute 18, 4
  13              		.thumb
  14              		.syntax unified
  15              		.file	"UDB_TIMER_ADC_PM.c"
  16              		.text
  17              	.Ltext0:
  18              		.cfi_sections	.debug_frame
  19              		.section	.text.UDB_TIMER_ADC_SaveConfig,"ax",%progbits
  20              		.align	2
  21              		.global	UDB_TIMER_ADC_SaveConfig
  22              		.code	16
  23              		.thumb_func
  24              		.type	UDB_TIMER_ADC_SaveConfig, %function
  25              	UDB_TIMER_ADC_SaveConfig:
  26              	.LFB0:
  27              		.file 1 "Generated_Source\\PSoC4\\UDB_TIMER_ADC_PM.c"
   1:Generated_Source\PSoC4/UDB_TIMER_ADC_PM.c **** /*******************************************************************************
   2:Generated_Source\PSoC4/UDB_TIMER_ADC_PM.c **** * File Name: UDB_TIMER_ADC_PM.c
   3:Generated_Source\PSoC4/UDB_TIMER_ADC_PM.c **** * Version 2.80
   4:Generated_Source\PSoC4/UDB_TIMER_ADC_PM.c **** *
   5:Generated_Source\PSoC4/UDB_TIMER_ADC_PM.c **** *  Description:
   6:Generated_Source\PSoC4/UDB_TIMER_ADC_PM.c **** *     This file provides the power management source code to API for the
   7:Generated_Source\PSoC4/UDB_TIMER_ADC_PM.c **** *     Timer.
   8:Generated_Source\PSoC4/UDB_TIMER_ADC_PM.c **** *
   9:Generated_Source\PSoC4/UDB_TIMER_ADC_PM.c **** *   Note:
  10:Generated_Source\PSoC4/UDB_TIMER_ADC_PM.c **** *     None
  11:Generated_Source\PSoC4/UDB_TIMER_ADC_PM.c **** *
  12:Generated_Source\PSoC4/UDB_TIMER_ADC_PM.c **** *******************************************************************************
  13:Generated_Source\PSoC4/UDB_TIMER_ADC_PM.c **** * Copyright 2008-2017, Cypress Semiconductor Corporation.  All rights reserved.
  14:Generated_Source\PSoC4/UDB_TIMER_ADC_PM.c **** * You may use this file only in accordance with the license, terms, conditions,
  15:Generated_Source\PSoC4/UDB_TIMER_ADC_PM.c **** * disclaimers, and limitations in the end user license agreement accompanying
  16:Generated_Source\PSoC4/UDB_TIMER_ADC_PM.c **** * the software package with which this file was provided.
  17:Generated_Source\PSoC4/UDB_TIMER_ADC_PM.c **** ********************************************************************************/
  18:Generated_Source\PSoC4/UDB_TIMER_ADC_PM.c **** 
  19:Generated_Source\PSoC4/UDB_TIMER_ADC_PM.c **** #include "UDB_TIMER_ADC.h"
  20:Generated_Source\PSoC4/UDB_TIMER_ADC_PM.c **** 
  21:Generated_Source\PSoC4/UDB_TIMER_ADC_PM.c **** static UDB_TIMER_ADC_backupStruct UDB_TIMER_ADC_backup;
  22:Generated_Source\PSoC4/UDB_TIMER_ADC_PM.c **** 
  23:Generated_Source\PSoC4/UDB_TIMER_ADC_PM.c **** 
  24:Generated_Source\PSoC4/UDB_TIMER_ADC_PM.c **** /*******************************************************************************
  25:Generated_Source\PSoC4/UDB_TIMER_ADC_PM.c **** * Function Name: UDB_TIMER_ADC_SaveConfig
  26:Generated_Source\PSoC4/UDB_TIMER_ADC_PM.c **** ********************************************************************************
  27:Generated_Source\PSoC4/UDB_TIMER_ADC_PM.c **** *
  28:Generated_Source\PSoC4/UDB_TIMER_ADC_PM.c **** * Summary:
  29:Generated_Source\PSoC4/UDB_TIMER_ADC_PM.c **** *     Save the current user configuration
  30:Generated_Source\PSoC4/UDB_TIMER_ADC_PM.c **** *
ARM GAS  C:\Temp\ccSP0J3H.s 			page 2


  31:Generated_Source\PSoC4/UDB_TIMER_ADC_PM.c **** * Parameters:
  32:Generated_Source\PSoC4/UDB_TIMER_ADC_PM.c **** *  void
  33:Generated_Source\PSoC4/UDB_TIMER_ADC_PM.c **** *
  34:Generated_Source\PSoC4/UDB_TIMER_ADC_PM.c **** * Return:
  35:Generated_Source\PSoC4/UDB_TIMER_ADC_PM.c **** *  void
  36:Generated_Source\PSoC4/UDB_TIMER_ADC_PM.c **** *
  37:Generated_Source\PSoC4/UDB_TIMER_ADC_PM.c **** * Global variables:
  38:Generated_Source\PSoC4/UDB_TIMER_ADC_PM.c **** *  UDB_TIMER_ADC_backup:  Variables of this global structure are modified to
  39:Generated_Source\PSoC4/UDB_TIMER_ADC_PM.c **** *  store the values of non retention configuration registers when Sleep() API is
  40:Generated_Source\PSoC4/UDB_TIMER_ADC_PM.c **** *  called.
  41:Generated_Source\PSoC4/UDB_TIMER_ADC_PM.c **** *
  42:Generated_Source\PSoC4/UDB_TIMER_ADC_PM.c **** *******************************************************************************/
  43:Generated_Source\PSoC4/UDB_TIMER_ADC_PM.c **** void UDB_TIMER_ADC_SaveConfig(void) 
  44:Generated_Source\PSoC4/UDB_TIMER_ADC_PM.c **** {
  28              		.loc 1 44 0
  29              		.cfi_startproc
  30              		@ args = 0, pretend = 0, frame = 0
  31              		@ frame_needed = 0, uses_anonymous_args = 0
  32 0000 10B5     		push	{r4, lr}
  33              		.cfi_def_cfa_offset 8
  34              		.cfi_offset 4, -8
  35              		.cfi_offset 14, -4
  45:Generated_Source\PSoC4/UDB_TIMER_ADC_PM.c ****     #if (!UDB_TIMER_ADC_UsingFixedFunction)
  46:Generated_Source\PSoC4/UDB_TIMER_ADC_PM.c ****         UDB_TIMER_ADC_backup.TimerUdb = UDB_TIMER_ADC_ReadCounter();
  36              		.loc 1 46 0
  37 0002 FFF7FEFF 		bl	UDB_TIMER_ADC_ReadCounter
  38              	.LVL0:
  39 0006 034B     		ldr	r3, .L2
  40 0008 5870     		strb	r0, [r3, #1]
  47:Generated_Source\PSoC4/UDB_TIMER_ADC_PM.c ****         UDB_TIMER_ADC_backup.InterruptMaskValue = UDB_TIMER_ADC_STATUS_MASK;
  41              		.loc 1 47 0
  42 000a 034A     		ldr	r2, .L2+4
  43 000c 1278     		ldrb	r2, [r2]
  44 000e 9A70     		strb	r2, [r3, #2]
  48:Generated_Source\PSoC4/UDB_TIMER_ADC_PM.c ****         #if (UDB_TIMER_ADC_UsingHWCaptureCounter)
  49:Generated_Source\PSoC4/UDB_TIMER_ADC_PM.c ****             UDB_TIMER_ADC_backup.TimerCaptureCounter = UDB_TIMER_ADC_ReadCaptureCount();
  50:Generated_Source\PSoC4/UDB_TIMER_ADC_PM.c ****         #endif /* Back Up capture counter register  */
  51:Generated_Source\PSoC4/UDB_TIMER_ADC_PM.c **** 
  52:Generated_Source\PSoC4/UDB_TIMER_ADC_PM.c ****         #if(!UDB_TIMER_ADC_UDB_CONTROL_REG_REMOVED)
  53:Generated_Source\PSoC4/UDB_TIMER_ADC_PM.c ****             UDB_TIMER_ADC_backup.TimerControlRegister = UDB_TIMER_ADC_ReadControlRegister();
  54:Generated_Source\PSoC4/UDB_TIMER_ADC_PM.c ****         #endif /* Backup the enable state of the Timer component */
  55:Generated_Source\PSoC4/UDB_TIMER_ADC_PM.c ****     #endif /* Backup non retention registers in UDB implementation. All fixed function registers ar
  56:Generated_Source\PSoC4/UDB_TIMER_ADC_PM.c **** }
  45              		.loc 1 56 0
  46              		@ sp needed
  47 0010 10BD     		pop	{r4, pc}
  48              	.L3:
  49 0012 C046     		.align	2
  50              	.L2:
  51 0014 00000000 		.word	.LANCHOR0
  52 0018 83000F40 		.word	1074724995
  53              		.cfi_endproc
  54              	.LFE0:
  55              		.size	UDB_TIMER_ADC_SaveConfig, .-UDB_TIMER_ADC_SaveConfig
  56              		.section	.text.UDB_TIMER_ADC_RestoreConfig,"ax",%progbits
  57              		.align	2
  58              		.global	UDB_TIMER_ADC_RestoreConfig
ARM GAS  C:\Temp\ccSP0J3H.s 			page 3


  59              		.code	16
  60              		.thumb_func
  61              		.type	UDB_TIMER_ADC_RestoreConfig, %function
  62              	UDB_TIMER_ADC_RestoreConfig:
  63              	.LFB1:
  57:Generated_Source\PSoC4/UDB_TIMER_ADC_PM.c **** 
  58:Generated_Source\PSoC4/UDB_TIMER_ADC_PM.c **** 
  59:Generated_Source\PSoC4/UDB_TIMER_ADC_PM.c **** /*******************************************************************************
  60:Generated_Source\PSoC4/UDB_TIMER_ADC_PM.c **** * Function Name: UDB_TIMER_ADC_RestoreConfig
  61:Generated_Source\PSoC4/UDB_TIMER_ADC_PM.c **** ********************************************************************************
  62:Generated_Source\PSoC4/UDB_TIMER_ADC_PM.c **** *
  63:Generated_Source\PSoC4/UDB_TIMER_ADC_PM.c **** * Summary:
  64:Generated_Source\PSoC4/UDB_TIMER_ADC_PM.c **** *  Restores the current user configuration.
  65:Generated_Source\PSoC4/UDB_TIMER_ADC_PM.c **** *
  66:Generated_Source\PSoC4/UDB_TIMER_ADC_PM.c **** * Parameters:
  67:Generated_Source\PSoC4/UDB_TIMER_ADC_PM.c **** *  void
  68:Generated_Source\PSoC4/UDB_TIMER_ADC_PM.c **** *
  69:Generated_Source\PSoC4/UDB_TIMER_ADC_PM.c **** * Return:
  70:Generated_Source\PSoC4/UDB_TIMER_ADC_PM.c **** *  void
  71:Generated_Source\PSoC4/UDB_TIMER_ADC_PM.c **** *
  72:Generated_Source\PSoC4/UDB_TIMER_ADC_PM.c **** * Global variables:
  73:Generated_Source\PSoC4/UDB_TIMER_ADC_PM.c **** *  UDB_TIMER_ADC_backup:  Variables of this global structure are used to
  74:Generated_Source\PSoC4/UDB_TIMER_ADC_PM.c **** *  restore the values of non retention registers on wakeup from sleep mode.
  75:Generated_Source\PSoC4/UDB_TIMER_ADC_PM.c **** *
  76:Generated_Source\PSoC4/UDB_TIMER_ADC_PM.c **** *******************************************************************************/
  77:Generated_Source\PSoC4/UDB_TIMER_ADC_PM.c **** void UDB_TIMER_ADC_RestoreConfig(void) 
  78:Generated_Source\PSoC4/UDB_TIMER_ADC_PM.c **** {   
  64              		.loc 1 78 0
  65              		.cfi_startproc
  66              		@ args = 0, pretend = 0, frame = 0
  67              		@ frame_needed = 0, uses_anonymous_args = 0
  68 0000 10B5     		push	{r4, lr}
  69              		.cfi_def_cfa_offset 8
  70              		.cfi_offset 4, -8
  71              		.cfi_offset 14, -4
  79:Generated_Source\PSoC4/UDB_TIMER_ADC_PM.c ****     #if (!UDB_TIMER_ADC_UsingFixedFunction)
  80:Generated_Source\PSoC4/UDB_TIMER_ADC_PM.c **** 
  81:Generated_Source\PSoC4/UDB_TIMER_ADC_PM.c ****         UDB_TIMER_ADC_WriteCounter(UDB_TIMER_ADC_backup.TimerUdb);
  72              		.loc 1 81 0
  73 0002 044C     		ldr	r4, .L5
  74 0004 6078     		ldrb	r0, [r4, #1]
  75 0006 FFF7FEFF 		bl	UDB_TIMER_ADC_WriteCounter
  76              	.LVL1:
  82:Generated_Source\PSoC4/UDB_TIMER_ADC_PM.c ****         UDB_TIMER_ADC_STATUS_MASK =UDB_TIMER_ADC_backup.InterruptMaskValue;
  77              		.loc 1 82 0
  78 000a A278     		ldrb	r2, [r4, #2]
  79 000c 024B     		ldr	r3, .L5+4
  80 000e 1A70     		strb	r2, [r3]
  83:Generated_Source\PSoC4/UDB_TIMER_ADC_PM.c ****         #if (UDB_TIMER_ADC_UsingHWCaptureCounter)
  84:Generated_Source\PSoC4/UDB_TIMER_ADC_PM.c ****             UDB_TIMER_ADC_SetCaptureCount(UDB_TIMER_ADC_backup.TimerCaptureCounter);
  85:Generated_Source\PSoC4/UDB_TIMER_ADC_PM.c ****         #endif /* Restore Capture counter register*/
  86:Generated_Source\PSoC4/UDB_TIMER_ADC_PM.c **** 
  87:Generated_Source\PSoC4/UDB_TIMER_ADC_PM.c ****         #if(!UDB_TIMER_ADC_UDB_CONTROL_REG_REMOVED)
  88:Generated_Source\PSoC4/UDB_TIMER_ADC_PM.c ****             UDB_TIMER_ADC_WriteControlRegister(UDB_TIMER_ADC_backup.TimerControlRegister);
  89:Generated_Source\PSoC4/UDB_TIMER_ADC_PM.c ****         #endif /* Restore the enable state of the Timer component */
  90:Generated_Source\PSoC4/UDB_TIMER_ADC_PM.c ****     #endif /* Restore non retention registers in the UDB implementation only */
  91:Generated_Source\PSoC4/UDB_TIMER_ADC_PM.c **** }
ARM GAS  C:\Temp\ccSP0J3H.s 			page 4


  81              		.loc 1 91 0
  82              		@ sp needed
  83 0010 10BD     		pop	{r4, pc}
  84              	.L6:
  85 0012 C046     		.align	2
  86              	.L5:
  87 0014 00000000 		.word	.LANCHOR0
  88 0018 83000F40 		.word	1074724995
  89              		.cfi_endproc
  90              	.LFE1:
  91              		.size	UDB_TIMER_ADC_RestoreConfig, .-UDB_TIMER_ADC_RestoreConfig
  92              		.section	.text.UDB_TIMER_ADC_Sleep,"ax",%progbits
  93              		.align	2
  94              		.global	UDB_TIMER_ADC_Sleep
  95              		.code	16
  96              		.thumb_func
  97              		.type	UDB_TIMER_ADC_Sleep, %function
  98              	UDB_TIMER_ADC_Sleep:
  99              	.LFB2:
  92:Generated_Source\PSoC4/UDB_TIMER_ADC_PM.c **** 
  93:Generated_Source\PSoC4/UDB_TIMER_ADC_PM.c **** 
  94:Generated_Source\PSoC4/UDB_TIMER_ADC_PM.c **** /*******************************************************************************
  95:Generated_Source\PSoC4/UDB_TIMER_ADC_PM.c **** * Function Name: UDB_TIMER_ADC_Sleep
  96:Generated_Source\PSoC4/UDB_TIMER_ADC_PM.c **** ********************************************************************************
  97:Generated_Source\PSoC4/UDB_TIMER_ADC_PM.c **** *
  98:Generated_Source\PSoC4/UDB_TIMER_ADC_PM.c **** * Summary:
  99:Generated_Source\PSoC4/UDB_TIMER_ADC_PM.c **** *     Stop and Save the user configuration
 100:Generated_Source\PSoC4/UDB_TIMER_ADC_PM.c **** *
 101:Generated_Source\PSoC4/UDB_TIMER_ADC_PM.c **** * Parameters:
 102:Generated_Source\PSoC4/UDB_TIMER_ADC_PM.c **** *  void
 103:Generated_Source\PSoC4/UDB_TIMER_ADC_PM.c **** *
 104:Generated_Source\PSoC4/UDB_TIMER_ADC_PM.c **** * Return:
 105:Generated_Source\PSoC4/UDB_TIMER_ADC_PM.c **** *  void
 106:Generated_Source\PSoC4/UDB_TIMER_ADC_PM.c **** *
 107:Generated_Source\PSoC4/UDB_TIMER_ADC_PM.c **** * Global variables:
 108:Generated_Source\PSoC4/UDB_TIMER_ADC_PM.c **** *  UDB_TIMER_ADC_backup.TimerEnableState:  Is modified depending on the
 109:Generated_Source\PSoC4/UDB_TIMER_ADC_PM.c **** *  enable state of the block before entering sleep mode.
 110:Generated_Source\PSoC4/UDB_TIMER_ADC_PM.c **** *
 111:Generated_Source\PSoC4/UDB_TIMER_ADC_PM.c **** *******************************************************************************/
 112:Generated_Source\PSoC4/UDB_TIMER_ADC_PM.c **** void UDB_TIMER_ADC_Sleep(void) 
 113:Generated_Source\PSoC4/UDB_TIMER_ADC_PM.c **** {
 100              		.loc 1 113 0
 101              		.cfi_startproc
 102              		@ args = 0, pretend = 0, frame = 0
 103              		@ frame_needed = 0, uses_anonymous_args = 0
 104 0000 10B5     		push	{r4, lr}
 105              		.cfi_def_cfa_offset 8
 106              		.cfi_offset 4, -8
 107              		.cfi_offset 14, -4
 114:Generated_Source\PSoC4/UDB_TIMER_ADC_PM.c ****     #if(!UDB_TIMER_ADC_UDB_CONTROL_REG_REMOVED)
 115:Generated_Source\PSoC4/UDB_TIMER_ADC_PM.c ****         /* Save Counter's enable state */
 116:Generated_Source\PSoC4/UDB_TIMER_ADC_PM.c ****         if(UDB_TIMER_ADC_CTRL_ENABLE == (UDB_TIMER_ADC_CONTROL & UDB_TIMER_ADC_CTRL_ENABLE))
 117:Generated_Source\PSoC4/UDB_TIMER_ADC_PM.c ****         {
 118:Generated_Source\PSoC4/UDB_TIMER_ADC_PM.c ****             /* Timer is enabled */
 119:Generated_Source\PSoC4/UDB_TIMER_ADC_PM.c ****             UDB_TIMER_ADC_backup.TimerEnableState = 1u;
 120:Generated_Source\PSoC4/UDB_TIMER_ADC_PM.c ****         }
 121:Generated_Source\PSoC4/UDB_TIMER_ADC_PM.c ****         else
ARM GAS  C:\Temp\ccSP0J3H.s 			page 5


 122:Generated_Source\PSoC4/UDB_TIMER_ADC_PM.c ****         {
 123:Generated_Source\PSoC4/UDB_TIMER_ADC_PM.c ****             /* Timer is disabled */
 124:Generated_Source\PSoC4/UDB_TIMER_ADC_PM.c ****             UDB_TIMER_ADC_backup.TimerEnableState = 0u;
 125:Generated_Source\PSoC4/UDB_TIMER_ADC_PM.c ****         }
 126:Generated_Source\PSoC4/UDB_TIMER_ADC_PM.c ****     #endif /* Back up enable state from the Timer control register */
 127:Generated_Source\PSoC4/UDB_TIMER_ADC_PM.c ****     UDB_TIMER_ADC_Stop();
 108              		.loc 1 127 0
 109 0002 FFF7FEFF 		bl	UDB_TIMER_ADC_Stop
 110              	.LVL2:
 128:Generated_Source\PSoC4/UDB_TIMER_ADC_PM.c ****     UDB_TIMER_ADC_SaveConfig();
 111              		.loc 1 128 0
 112 0006 FFF7FEFF 		bl	UDB_TIMER_ADC_SaveConfig
 113              	.LVL3:
 129:Generated_Source\PSoC4/UDB_TIMER_ADC_PM.c **** }
 114              		.loc 1 129 0
 115              		@ sp needed
 116 000a 10BD     		pop	{r4, pc}
 117              		.cfi_endproc
 118              	.LFE2:
 119              		.size	UDB_TIMER_ADC_Sleep, .-UDB_TIMER_ADC_Sleep
 120              		.section	.text.UDB_TIMER_ADC_Wakeup,"ax",%progbits
 121              		.align	2
 122              		.global	UDB_TIMER_ADC_Wakeup
 123              		.code	16
 124              		.thumb_func
 125              		.type	UDB_TIMER_ADC_Wakeup, %function
 126              	UDB_TIMER_ADC_Wakeup:
 127              	.LFB3:
 130:Generated_Source\PSoC4/UDB_TIMER_ADC_PM.c **** 
 131:Generated_Source\PSoC4/UDB_TIMER_ADC_PM.c **** 
 132:Generated_Source\PSoC4/UDB_TIMER_ADC_PM.c **** /*******************************************************************************
 133:Generated_Source\PSoC4/UDB_TIMER_ADC_PM.c **** * Function Name: UDB_TIMER_ADC_Wakeup
 134:Generated_Source\PSoC4/UDB_TIMER_ADC_PM.c **** ********************************************************************************
 135:Generated_Source\PSoC4/UDB_TIMER_ADC_PM.c **** *
 136:Generated_Source\PSoC4/UDB_TIMER_ADC_PM.c **** * Summary:
 137:Generated_Source\PSoC4/UDB_TIMER_ADC_PM.c **** *  Restores and enables the user configuration
 138:Generated_Source\PSoC4/UDB_TIMER_ADC_PM.c **** *
 139:Generated_Source\PSoC4/UDB_TIMER_ADC_PM.c **** * Parameters:
 140:Generated_Source\PSoC4/UDB_TIMER_ADC_PM.c **** *  void
 141:Generated_Source\PSoC4/UDB_TIMER_ADC_PM.c **** *
 142:Generated_Source\PSoC4/UDB_TIMER_ADC_PM.c **** * Return:
 143:Generated_Source\PSoC4/UDB_TIMER_ADC_PM.c **** *  void
 144:Generated_Source\PSoC4/UDB_TIMER_ADC_PM.c **** *
 145:Generated_Source\PSoC4/UDB_TIMER_ADC_PM.c **** * Global variables:
 146:Generated_Source\PSoC4/UDB_TIMER_ADC_PM.c **** *  UDB_TIMER_ADC_backup.enableState:  Is used to restore the enable state of
 147:Generated_Source\PSoC4/UDB_TIMER_ADC_PM.c **** *  block on wakeup from sleep mode.
 148:Generated_Source\PSoC4/UDB_TIMER_ADC_PM.c **** *
 149:Generated_Source\PSoC4/UDB_TIMER_ADC_PM.c **** *******************************************************************************/
 150:Generated_Source\PSoC4/UDB_TIMER_ADC_PM.c **** void UDB_TIMER_ADC_Wakeup(void) 
 151:Generated_Source\PSoC4/UDB_TIMER_ADC_PM.c **** {
 128              		.loc 1 151 0
 129              		.cfi_startproc
 130              		@ args = 0, pretend = 0, frame = 0
 131              		@ frame_needed = 0, uses_anonymous_args = 0
 132 0000 10B5     		push	{r4, lr}
 133              		.cfi_def_cfa_offset 8
 134              		.cfi_offset 4, -8
ARM GAS  C:\Temp\ccSP0J3H.s 			page 6


 135              		.cfi_offset 14, -4
 152:Generated_Source\PSoC4/UDB_TIMER_ADC_PM.c ****     UDB_TIMER_ADC_RestoreConfig();
 136              		.loc 1 152 0
 137 0002 FFF7FEFF 		bl	UDB_TIMER_ADC_RestoreConfig
 138              	.LVL4:
 153:Generated_Source\PSoC4/UDB_TIMER_ADC_PM.c ****     #if(!UDB_TIMER_ADC_UDB_CONTROL_REG_REMOVED)
 154:Generated_Source\PSoC4/UDB_TIMER_ADC_PM.c ****         if(UDB_TIMER_ADC_backup.TimerEnableState == 1u)
 155:Generated_Source\PSoC4/UDB_TIMER_ADC_PM.c ****         {     /* Enable Timer's operation */
 156:Generated_Source\PSoC4/UDB_TIMER_ADC_PM.c ****                 UDB_TIMER_ADC_Enable();
 157:Generated_Source\PSoC4/UDB_TIMER_ADC_PM.c ****         } /* Do nothing if Timer was disabled before */
 158:Generated_Source\PSoC4/UDB_TIMER_ADC_PM.c ****     #endif /* Remove this code section if Control register is removed */
 159:Generated_Source\PSoC4/UDB_TIMER_ADC_PM.c **** }
 139              		.loc 1 159 0
 140              		@ sp needed
 141 0006 10BD     		pop	{r4, pc}
 142              		.cfi_endproc
 143              	.LFE3:
 144              		.size	UDB_TIMER_ADC_Wakeup, .-UDB_TIMER_ADC_Wakeup
 145              		.bss
 146              		.align	2
 147              		.set	.LANCHOR0,. + 0
 148              		.type	UDB_TIMER_ADC_backup, %object
 149              		.size	UDB_TIMER_ADC_backup, 3
 150              	UDB_TIMER_ADC_backup:
 151 0000 000000   		.space	3
 152              		.text
 153              	.Letext0:
 154              		.file 2 "Generated_Source\\PSoC4\\cytypes.h"
 155              		.file 3 "Generated_Source\\PSoC4\\UDB_TIMER_ADC.h"